	.file	"main.cpp"
 # GNU C++20 (GCC) version 11.2.0 (x86_64-w64-mingw32)
 #	compiled by GNU C version 11.2.0, GMP version 6.2.1, MPFR version 4.1.0-p13, MPC version 1.2.1, isl version isl-0.24-GMP

 # GGC heuristics: --param ggc-min-expand=100 --param ggc-min-heapsize=131072
 # options passed: -mtune=generic -march=x86-64 -g -O0 -std=c++20 -ffast-math
	.text
.Ltext0:
	.file 0 "C:/Users/pluto/Desktop/tmpc/not_temp/3738" "main.cpp"
	.section	.text$_ZSt21is_constant_evaluatedv,"x"
	.linkonce discard
	.globl	_ZSt21is_constant_evaluatedv
	.def	_ZSt21is_constant_evaluatedv;	.scl	2;	.type	32;	.endef
	.seh_proc	_ZSt21is_constant_evaluatedv
_ZSt21is_constant_evaluatedv:
.LFB270:
	.file 1 "c:/users/pluto/scoop/apps/gcc/current/include/c++/11.2.0/type_traits"
	.loc 1 3325 3
	pushq	%rbp	 #
	.seh_pushreg	%rbp
.LCFI0:
	movq	%rsp, %rbp	 #,
	.seh_setframe	%rbp, 0
.LCFI1:
	.seh_endprologue
 # c:\users\pluto\scoop\apps\gcc\current\include\c++\11.2.0\type_traits:3325:   { return __builtin_is_constant_evaluated(); }
	.loc 1 3325 44
	movl	$0, %eax	 #, _1
 # c:\users\pluto\scoop\apps\gcc\current\include\c++\11.2.0\type_traits:3325:   { return __builtin_is_constant_evaluated(); }
	.loc 1 3325 47
	popq	%rbp	 #
.LCFI2:
	ret	
.LFE270:
	.seh_endproc
	.section	.text$_ZnwyPv,"x"
	.linkonce discard
	.globl	_ZnwyPv
	.def	_ZnwyPv;	.scl	2;	.type	32;	.endef
	.seh_proc	_ZnwyPv
_ZnwyPv:
.LFB432:
	.file 2 "c:/users/pluto/scoop/apps/gcc/current/include/c++/11.2.0/new"
	.loc 2 175 1
	pushq	%rbp	 #
	.seh_pushreg	%rbp
.LCFI3:
	movq	%rsp, %rbp	 #,
	.seh_setframe	%rbp, 0
.LCFI4:
	.seh_endprologue
	movq	%rcx, 16(%rbp)	 # D.14769, D.14769
	movq	%rdx, 24(%rbp)	 # __p, __p
 # c:\users\pluto\scoop\apps\gcc\current\include\c++\11.2.0\new:175: { return __p; }
	.loc 2 175 10
	movq	24(%rbp), %rax	 # __p, _2
 # c:\users\pluto\scoop\apps\gcc\current\include\c++\11.2.0\new:175: { return __p; }
	.loc 2 175 15
	popq	%rbp	 #
.LCFI5:
	ret	
.LFE432:
	.seh_endproc
	.section	.text$_ZdlPvS_,"x"
	.linkonce discard
	.globl	_ZdlPvS_
	.def	_ZdlPvS_;	.scl	2;	.type	32;	.endef
	.seh_proc	_ZdlPvS_
_ZdlPvS_:
.LFB434:
	.loc 2 180 67
	pushq	%rbp	 #
	.seh_pushreg	%rbp
.LCFI6:
	movq	%rsp, %rbp	 #,
	.seh_setframe	%rbp, 0
.LCFI7:
	.seh_endprologue
	movq	%rcx, 16(%rbp)	 # D.14777, D.14777
	movq	%rdx, 24(%rbp)	 # D.14778, D.14778
 # c:\users\pluto\scoop\apps\gcc\current\include\c++\11.2.0\new:180: inline void operator delete  (void*, void*) _GLIBCXX_USE_NOEXCEPT { }
	.loc 2 180 69
	nop	
	popq	%rbp	 #
.LCFI8:
	ret	
.LFE434:
	.seh_endproc
	.section	.text$_ZSt17__size_to_integery,"x"
	.linkonce discard
	.globl	_ZSt17__size_to_integery
	.def	_ZSt17__size_to_integery;	.scl	2;	.type	32;	.endef
	.seh_proc	_ZSt17__size_to_integery
_ZSt17__size_to_integery:
.LFB704:
	.file 3 "c:/users/pluto/scoop/apps/gcc/current/include/c++/11.2.0/bits/stl_algobase.h"
	.loc 3 1014 45
	pushq	%rbp	 #
	.seh_pushreg	%rbp
.LCFI9:
	movq	%rsp, %rbp	 #,
	.seh_setframe	%rbp, 0
.LCFI10:
	.seh_endprologue
	movq	%rcx, 16(%rbp)	 # __n, __n
 # c:\users\pluto\scoop\apps\gcc\current\include\c++\11.2.0\bits\stl_algobase.h:1014:   __size_to_integer(unsigned long long __n) { return __n; }
	.loc 3 1014 54
	movq	16(%rbp), %rax	 # __n, _2
 # c:\users\pluto\scoop\apps\gcc\current\include\c++\11.2.0\bits\stl_algobase.h:1014:   __size_to_integer(unsigned long long __n) { return __n; }
	.loc 3 1014 59
	popq	%rbp	 #
.LCFI11:
	ret	
.LFE704:
	.seh_endproc
	.section	.text$_ZN5ColoraSE7Vector3,"x"
	.linkonce discard
	.align 2
	.globl	_ZN5ColoraSE7Vector3
	.def	_ZN5ColoraSE7Vector3;	.scl	2;	.type	32;	.endef
	.seh_proc	_ZN5ColoraSE7Vector3
_ZN5ColoraSE7Vector3:
.LFB1117:
	.file 4 "c:/users/pluto/scoop/apps/gcc/current/include/c++/11.2.0/raylib/raylib.h"
	.loc 4 267 12
	pushq	%rbp	 #
	.seh_pushreg	%rbp
.LCFI12:
	pushq	%rbx	 #
	.seh_pushreg	%rbx
.LCFI13:
	leaq	(%rsp), %rbp	 #,
	.seh_setframe	%rbp, 0
.LCFI14:
	.seh_endprologue
	movq	%rcx, 24(%rbp)	 # this, this
	movq	%rdx, %rbx	 #, tmp93
 # c:\users\pluto\scoop\apps\gcc\current\include\c++\11.2.0\raylib\raylib.h:268:         r = (unsigned char)(vec.x*255.0f);
	.loc 4 268 33
	movss	(%rbx), %xmm1	 # vec.x, _1
 # c:\users\pluto\scoop\apps\gcc\current\include\c++\11.2.0\raylib\raylib.h:268:         r = (unsigned char)(vec.x*255.0f);
	.loc 4 268 34
	movss	.LC0(%rip), %xmm0	 #, tmp94
	mulss	%xmm1, %xmm0	 # _1, _2
 # c:\users\pluto\scoop\apps\gcc\current\include\c++\11.2.0\raylib\raylib.h:268:         r = (unsigned char)(vec.x*255.0f);
	.loc 4 268 13
	cvttss2sil	%xmm0, %eax	 # _2, tmp96
	movl	%eax, %edx	 # tmp95, _3
 # c:\users\pluto\scoop\apps\gcc\current\include\c++\11.2.0\raylib\raylib.h:268:         r = (unsigned char)(vec.x*255.0f);
	.loc 4 268 11
	movq	24(%rbp), %rax	 # this, tmp97
	movb	%dl, (%rax)	 # _3, this_11(D)->r
 # c:\users\pluto\scoop\apps\gcc\current\include\c++\11.2.0\raylib\raylib.h:269:         g = (unsigned char)(vec.y*255.0f);
	.loc 4 269 33
	movss	4(%rbx), %xmm1	 # vec.y, _4
 # c:\users\pluto\scoop\apps\gcc\current\include\c++\11.2.0\raylib\raylib.h:269:         g = (unsigned char)(vec.y*255.0f);
	.loc 4 269 34
	movss	.LC0(%rip), %xmm0	 #, tmp98
	mulss	%xmm1, %xmm0	 # _4, _5
 # c:\users\pluto\scoop\apps\gcc\current\include\c++\11.2.0\raylib\raylib.h:269:         g = (unsigned char)(vec.y*255.0f);
	.loc 4 269 13
	cvttss2sil	%xmm0, %eax	 # _5, tmp100
	movl	%eax, %edx	 # tmp99, _6
 # c:\users\pluto\scoop\apps\gcc\current\include\c++\11.2.0\raylib\raylib.h:269:         g = (unsigned char)(vec.y*255.0f);
	.loc 4 269 11
	movq	24(%rbp), %rax	 # this, tmp101
	movb	%dl, 1(%rax)	 # _6, this_11(D)->g
 # c:\users\pluto\scoop\apps\gcc\current\include\c++\11.2.0\raylib\raylib.h:270:         b = (unsigned char)(vec.z*255.0f);
	.loc 4 270 33
	movss	8(%rbx), %xmm1	 # vec.z, _7
 # c:\users\pluto\scoop\apps\gcc\current\include\c++\11.2.0\raylib\raylib.h:270:         b = (unsigned char)(vec.z*255.0f);
	.loc 4 270 34
	movss	.LC0(%rip), %xmm0	 #, tmp102
	mulss	%xmm1, %xmm0	 # _7, _8
 # c:\users\pluto\scoop\apps\gcc\current\include\c++\11.2.0\raylib\raylib.h:270:         b = (unsigned char)(vec.z*255.0f);
	.loc 4 270 13
	cvttss2sil	%xmm0, %eax	 # _8, tmp104
	movl	%eax, %edx	 # tmp103, _9
 # c:\users\pluto\scoop\apps\gcc\current\include\c++\11.2.0\raylib\raylib.h:270:         b = (unsigned char)(vec.z*255.0f);
	.loc 4 270 11
	movq	24(%rbp), %rax	 # this, tmp105
	movb	%dl, 2(%rax)	 # _9, this_11(D)->b
 # c:\users\pluto\scoop\apps\gcc\current\include\c++\11.2.0\raylib\raylib.h:271:         a = (unsigned char)(255);
	.loc 4 271 11
	movq	24(%rbp), %rax	 # this, tmp106
	movb	$-1, 3(%rax)	 #, this_11(D)->a
 # c:\users\pluto\scoop\apps\gcc\current\include\c++\11.2.0\raylib\raylib.h:272:         return *this;
	.loc 4 272 17
	movq	24(%rbp), %rax	 # this, _16
 # c:\users\pluto\scoop\apps\gcc\current\include\c++\11.2.0\raylib\raylib.h:273:     }
	.loc 4 273 5
	popq	%rbx	 #
.LCFI15:
	popq	%rbp	 #
.LCFI16:
	ret	
.LFE1117:
	.seh_endproc
	.text
	.globl	_Zpl
	.def	_Zpl;	.scl	2;	.type	32;	.endef
	.seh_proc	_Zpl
_Zpl:
.LFB1118:
	.loc 4 1643 36
	pushq	%rbp	 #
	.seh_pushreg	%rbp
.LCFI17:
	movq	%rsp, %rbp	 #,
	.seh_setframe	%rbp, 0
.LCFI18:
	.seh_endprologue
	movl	%ecx, 16(%rbp)	 # a, a
	movl	%edx, 24(%rbp)	 # b, b
 # c:\users\pluto\scoop\apps\gcc\current\include\c++\11.2.0\raylib\raylib.h:1644:     return {a.r + b.r, a.g + b.g, a.b + b.b, (a.a == 255 && b.a == 255) ? 255 : a.a + b.a};
	.loc 4 1644 15
	movzbl	16(%rbp), %ecx	 # a.r, _1
 # c:\users\pluto\scoop\apps\gcc\current\include\c++\11.2.0\raylib\raylib.h:1644:     return {a.r + b.r, a.g + b.g, a.b + b.b, (a.a == 255 && b.a == 255) ? 255 : a.a + b.a};
	.loc 4 1644 21
	movzbl	24(%rbp), %edx	 # b.r, _2
 # c:\users\pluto\scoop\apps\gcc\current\include\c++\11.2.0\raylib\raylib.h:1644:     return {a.r + b.r, a.g + b.g, a.b + b.b, (a.a == 255 && b.a == 255) ? 255 : a.a + b.a};
	.loc 4 1644 17
	addl	%ecx, %edx	 # _1, _3
 # c:\users\pluto\scoop\apps\gcc\current\include\c++\11.2.0\raylib\raylib.h:1644:     return {a.r + b.r, a.g + b.g, a.b + b.b, (a.a == 255 && b.a == 255) ? 255 : a.a + b.a};
	.loc 4 1644 90
	movb	%dl, %al	 # _3, D.127123
 # c:\users\pluto\scoop\apps\gcc\current\include\c++\11.2.0\raylib\raylib.h:1644:     return {a.r + b.r, a.g + b.g, a.b + b.b, (a.a == 255 && b.a == 255) ? 255 : a.a + b.a};
	.loc 4 1644 26
	movzbl	17(%rbp), %ecx	 # a.g, _4
 # c:\users\pluto\scoop\apps\gcc\current\include\c++\11.2.0\raylib\raylib.h:1644:     return {a.r + b.r, a.g + b.g, a.b + b.b, (a.a == 255 && b.a == 255) ? 255 : a.a + b.a};
	.loc 4 1644 32
	movzbl	25(%rbp), %edx	 # b.g, _5
 # c:\users\pluto\scoop\apps\gcc\current\include\c++\11.2.0\raylib\raylib.h:1644:     return {a.r + b.r, a.g + b.g, a.b + b.b, (a.a == 255 && b.a == 255) ? 255 : a.a + b.a};
	.loc 4 1644 28
	addl	%ecx, %edx	 # _4, _6
 # c:\users\pluto\scoop\apps\gcc\current\include\c++\11.2.0\raylib\raylib.h:1644:     return {a.r + b.r, a.g + b.g, a.b + b.b, (a.a == 255 && b.a == 255) ? 255 : a.a + b.a};
	.loc 4 1644 90
	movb	%dl, %ah	 # _6, D.127123
 # c:\users\pluto\scoop\apps\gcc\current\include\c++\11.2.0\raylib\raylib.h:1644:     return {a.r + b.r, a.g + b.g, a.b + b.b, (a.a == 255 && b.a == 255) ? 255 : a.a + b.a};
	.loc 4 1644 37
	movzbl	18(%rbp), %ecx	 # a.b, _7
 # c:\users\pluto\scoop\apps\gcc\current\include\c++\11.2.0\raylib\raylib.h:1644:     return {a.r + b.r, a.g + b.g, a.b + b.b, (a.a == 255 && b.a == 255) ? 255 : a.a + b.a};
	.loc 4 1644 43
	movzbl	26(%rbp), %edx	 # b.b, _8
 # c:\users\pluto\scoop\apps\gcc\current\include\c++\11.2.0\raylib\raylib.h:1644:     return {a.r + b.r, a.g + b.g, a.b + b.b, (a.a == 255 && b.a == 255) ? 255 : a.a + b.a};
	.loc 4 1644 39
	addl	%ecx, %edx	 # _7, _9
 # c:\users\pluto\scoop\apps\gcc\current\include\c++\11.2.0\raylib\raylib.h:1644:     return {a.r + b.r, a.g + b.g, a.b + b.b, (a.a == 255 && b.a == 255) ? 255 : a.a + b.a};
	.loc 4 1644 90
	movzbl	%dl, %edx	 # _9, tmp98
	sall	$16, %edx	 #, tmp99
	andl	$-16711681, %eax	 #, tmp100
	orl	%edx, %eax	 # tmp99, tmp101
 # c:\users\pluto\scoop\apps\gcc\current\include\c++\11.2.0\raylib\raylib.h:1644:     return {a.r + b.r, a.g + b.g, a.b + b.b, (a.a == 255 && b.a == 255) ? 255 : a.a + b.a};
	.loc 4 1644 49
	movzbl	19(%rbp), %edx	 # a.a, _10
 # c:\users\pluto\scoop\apps\gcc\current\include\c++\11.2.0\raylib\raylib.h:1644:     return {a.r + b.r, a.g + b.g, a.b + b.b, (a.a == 255 && b.a == 255) ? 255 : a.a + b.a};
	.loc 4 1644 90
	cmpb	$-1, %dl	 #, _10
	jne	.L11	 #,
 # c:\users\pluto\scoop\apps\gcc\current\include\c++\11.2.0\raylib\raylib.h:1644:     return {a.r + b.r, a.g + b.g, a.b + b.b, (a.a == 255 && b.a == 255) ? 255 : a.a + b.a};
	.loc 4 1644 63 discriminator 2
	movzbl	27(%rbp), %edx	 # b.a, _11
 # c:\users\pluto\scoop\apps\gcc\current\include\c++\11.2.0\raylib\raylib.h:1644:     return {a.r + b.r, a.g + b.g, a.b + b.b, (a.a == 255 && b.a == 255) ? 255 : a.a + b.a};
	.loc 4 1644 58 discriminator 2
	cmpb	$-1, %dl	 #, _11
	je	.L12	 #,
.L11:
 # c:\users\pluto\scoop\apps\gcc\current\include\c++\11.2.0\raylib\raylib.h:1644:     return {a.r + b.r, a.g + b.g, a.b + b.b, (a.a == 255 && b.a == 255) ? 255 : a.a + b.a};
	.loc 4 1644 83 discriminator 3
	movzbl	19(%rbp), %ecx	 # a.a, _12
 # c:\users\pluto\scoop\apps\gcc\current\include\c++\11.2.0\raylib\raylib.h:1644:     return {a.r + b.r, a.g + b.g, a.b + b.b, (a.a == 255 && b.a == 255) ? 255 : a.a + b.a};
	.loc 4 1644 89 discriminator 3
	movzbl	27(%rbp), %edx	 # b.a, _13
 # c:\users\pluto\scoop\apps\gcc\current\include\c++\11.2.0\raylib\raylib.h:1644:     return {a.r + b.r, a.g + b.g, a.b + b.b, (a.a == 255 && b.a == 255) ? 255 : a.a + b.a};
	.loc 4 1644 90 discriminator 3
	addl	%ecx, %edx	 # _12, iftmp.0_14
	jmp	.L13	 #
.L12:
 # c:\users\pluto\scoop\apps\gcc\current\include\c++\11.2.0\raylib\raylib.h:1644:     return {a.r + b.r, a.g + b.g, a.b + b.b, (a.a == 255 && b.a == 255) ? 255 : a.a + b.a};
	.loc 4 1644 90 is_stmt 0 discriminator 4
	movl	$-1, %edx	 #, iftmp.0_14
.L13:
 # c:\users\pluto\scoop\apps\gcc\current\include\c++\11.2.0\raylib\raylib.h:1644:     return {a.r + b.r, a.g + b.g, a.b + b.b, (a.a == 255 && b.a == 255) ? 255 : a.a + b.a};
	.loc 4 1644 90 discriminator 6
	movzbl	%dl, %edx	 # iftmp.0_14, tmp102
	sall	$24, %edx	 #, tmp103
	andl	$16777215, %eax	 #, tmp104
	orl	%edx, %eax	 # tmp103, tmp105
 # c:\users\pluto\scoop\apps\gcc\current\include\c++\11.2.0\raylib\raylib.h:1645: }
	.loc 4 1645 1 is_stmt 1 discriminator 6
	popq	%rbp	 #
.LCFI19:
	ret	
.LFE1118:
	.seh_endproc
	.globl	_Zmi
	.def	_Zmi;	.scl	2;	.type	32;	.endef
	.seh_proc	_Zmi
_Zmi:
.LFB1119:
	.loc 4 1646 36
	pushq	%rbp	 #
	.seh_pushreg	%rbp
.LCFI20:
	movq	%rsp, %rbp	 #,
	.seh_setframe	%rbp, 0
.LCFI21:
	.seh_endprologue
	movl	%ecx, 16(%rbp)	 # a, a
	movl	%edx, 24(%rbp)	 # b, b
 # c:\users\pluto\scoop\apps\gcc\current\include\c++\11.2.0\raylib\raylib.h:1647:     return {a.r - b.r, a.g - b.g, a.b - b.b, (a.a == 255 && b.a == 255) ? 255 : a.a - b.a};
	.loc 4 1647 15
	movzbl	16(%rbp), %edx	 # a.r, _1
 # c:\users\pluto\scoop\apps\gcc\current\include\c++\11.2.0\raylib\raylib.h:1647:     return {a.r - b.r, a.g - b.g, a.b - b.b, (a.a == 255 && b.a == 255) ? 255 : a.a - b.a};
	.loc 4 1647 21
	movzbl	24(%rbp), %ecx	 # b.r, _2
 # c:\users\pluto\scoop\apps\gcc\current\include\c++\11.2.0\raylib\raylib.h:1647:     return {a.r - b.r, a.g - b.g, a.b - b.b, (a.a == 255 && b.a == 255) ? 255 : a.a - b.a};
	.loc 4 1647 17
	subl	%ecx, %edx	 # _2, _3
 # c:\users\pluto\scoop\apps\gcc\current\include\c++\11.2.0\raylib\raylib.h:1647:     return {a.r - b.r, a.g - b.g, a.b - b.b, (a.a == 255 && b.a == 255) ? 255 : a.a - b.a};
	.loc 4 1647 90
	movb	%dl, %al	 # _3, D.127130
 # c:\users\pluto\scoop\apps\gcc\current\include\c++\11.2.0\raylib\raylib.h:1647:     return {a.r - b.r, a.g - b.g, a.b - b.b, (a.a == 255 && b.a == 255) ? 255 : a.a - b.a};
	.loc 4 1647 26
	movzbl	17(%rbp), %edx	 # a.g, _4
 # c:\users\pluto\scoop\apps\gcc\current\include\c++\11.2.0\raylib\raylib.h:1647:     return {a.r - b.r, a.g - b.g, a.b - b.b, (a.a == 255 && b.a == 255) ? 255 : a.a - b.a};
	.loc 4 1647 32
	movzbl	25(%rbp), %ecx	 # b.g, _5
 # c:\users\pluto\scoop\apps\gcc\current\include\c++\11.2.0\raylib\raylib.h:1647:     return {a.r - b.r, a.g - b.g, a.b - b.b, (a.a == 255 && b.a == 255) ? 255 : a.a - b.a};
	.loc 4 1647 28
	subl	%ecx, %edx	 # _5, _6
 # c:\users\pluto\scoop\apps\gcc\current\include\c++\11.2.0\raylib\raylib.h:1647:     return {a.r - b.r, a.g - b.g, a.b - b.b, (a.a == 255 && b.a == 255) ? 255 : a.a - b.a};
	.loc 4 1647 90
	movb	%dl, %ah	 # _6, D.127130
 # c:\users\pluto\scoop\apps\gcc\current\include\c++\11.2.0\raylib\raylib.h:1647:     return {a.r - b.r, a.g - b.g, a.b - b.b, (a.a == 255 && b.a == 255) ? 255 : a.a - b.a};
	.loc 4 1647 37
	movzbl	18(%rbp), %edx	 # a.b, _7
 # c:\users\pluto\scoop\apps\gcc\current\include\c++\11.2.0\raylib\raylib.h:1647:     return {a.r - b.r, a.g - b.g, a.b - b.b, (a.a == 255 && b.a == 255) ? 255 : a.a - b.a};
	.loc 4 1647 43
	movzbl	26(%rbp), %ecx	 # b.b, _8
 # c:\users\pluto\scoop\apps\gcc\current\include\c++\11.2.0\raylib\raylib.h:1647:     return {a.r - b.r, a.g - b.g, a.b - b.b, (a.a == 255 && b.a == 255) ? 255 : a.a - b.a};
	.loc 4 1647 39
	subl	%ecx, %edx	 # _8, _9
 # c:\users\pluto\scoop\apps\gcc\current\include\c++\11.2.0\raylib\raylib.h:1647:     return {a.r - b.r, a.g - b.g, a.b - b.b, (a.a == 255 && b.a == 255) ? 255 : a.a - b.a};
	.loc 4 1647 90
	movzbl	%dl, %edx	 # _9, tmp98
	sall	$16, %edx	 #, tmp99
	andl	$-16711681, %eax	 #, tmp100
	orl	%edx, %eax	 # tmp99, tmp101
 # c:\users\pluto\scoop\apps\gcc\current\include\c++\11.2.0\raylib\raylib.h:1647:     return {a.r - b.r, a.g - b.g, a.b - b.b, (a.a == 255 && b.a == 255) ? 255 : a.a - b.a};
	.loc 4 1647 49
	movzbl	19(%rbp), %edx	 # a.a, _10
 # c:\users\pluto\scoop\apps\gcc\current\include\c++\11.2.0\raylib\raylib.h:1647:     return {a.r - b.r, a.g - b.g, a.b - b.b, (a.a == 255 && b.a == 255) ? 255 : a.a - b.a};
	.loc 4 1647 90
	cmpb	$-1, %dl	 #, _10
	jne	.L16	 #,
 # c:\users\pluto\scoop\apps\gcc\current\include\c++\11.2.0\raylib\raylib.h:1647:     return {a.r - b.r, a.g - b.g, a.b - b.b, (a.a == 255 && b.a == 255) ? 255 : a.a - b.a};
	.loc 4 1647 63 discriminator 2
	movzbl	27(%rbp), %edx	 # b.a, _11
 # c:\users\pluto\scoop\apps\gcc\current\include\c++\11.2.0\raylib\raylib.h:1647:     return {a.r - b.r, a.g - b.g, a.b - b.b, (a.a == 255 && b.a == 255) ? 255 : a.a - b.a};
	.loc 4 1647 58 discriminator 2
	cmpb	$-1, %dl	 #, _11
	je	.L17	 #,
.L16:
 # c:\users\pluto\scoop\apps\gcc\current\include\c++\11.2.0\raylib\raylib.h:1647:     return {a.r - b.r, a.g - b.g, a.b - b.b, (a.a == 255 && b.a == 255) ? 255 : a.a - b.a};
	.loc 4 1647 83 discriminator 3
	movzbl	19(%rbp), %edx	 # a.a, _12
 # c:\users\pluto\scoop\apps\gcc\current\include\c++\11.2.0\raylib\raylib.h:1647:     return {a.r - b.r, a.g - b.g, a.b - b.b, (a.a == 255 && b.a == 255) ? 255 : a.a - b.a};
	.loc 4 1647 89 discriminator 3
	movzbl	27(%rbp), %ecx	 # b.a, _13
 # c:\users\pluto\scoop\apps\gcc\current\include\c++\11.2.0\raylib\raylib.h:1647:     return {a.r - b.r, a.g - b.g, a.b - b.b, (a.a == 255 && b.a == 255) ? 255 : a.a - b.a};
	.loc 4 1647 90 discriminator 3
	subl	%ecx, %edx	 # _13, iftmp.1_14
	jmp	.L18	 #
.L17:
 # c:\users\pluto\scoop\apps\gcc\current\include\c++\11.2.0\raylib\raylib.h:1647:     return {a.r - b.r, a.g - b.g, a.b - b.b, (a.a == 255 && b.a == 255) ? 255 : a.a - b.a};
	.loc 4 1647 90 is_stmt 0 discriminator 4
	movl	$-1, %edx	 #, iftmp.1_14
.L18:
 # c:\users\pluto\scoop\apps\gcc\current\include\c++\11.2.0\raylib\raylib.h:1647:     return {a.r - b.r, a.g - b.g, a.b - b.b, (a.a == 255 && b.a == 255) ? 255 : a.a - b.a};
	.loc 4 1647 90 discriminator 6
	movzbl	%dl, %edx	 # iftmp.1_14, tmp102
	sall	$24, %edx	 #, tmp103
	andl	$16777215, %eax	 #, tmp104
	orl	%edx, %eax	 # tmp103, tmp105
 # c:\users\pluto\scoop\apps\gcc\current\include\c++\11.2.0\raylib\raylib.h:1648: }
	.loc 4 1648 1 is_stmt 1 discriminator 6
	popq	%rbp	 #
.LCFI22:
	ret	
.LFE1119:
	.seh_endproc
	.globl	_Zml
	.def	_Zml;	.scl	2;	.type	32;	.endef
	.seh_proc	_Zml
_Zml:
.LFB1120:
	.loc 4 1652 36
	pushq	%rbp	 #
	.seh_pushreg	%rbp
.LCFI23:
	movq	%rsp, %rbp	 #,
	.seh_setframe	%rbp, 0
.LCFI24:
	subq	$32, %rsp	 #,
	.seh_stackalloc	32
	.seh_endprologue
	movl	%ecx, 16(%rbp)	 # a, a
	movl	%edx, 24(%rbp)	 # b, b
 # c:\users\pluto\scoop\apps\gcc\current\include\c++\11.2.0\raylib\raylib.h:1653:     return ColorTint(a, b);
	.loc 4 1653 21
	movl	24(%rbp), %eax	 # b, tmp84
	movl	%eax, %edx	 # tmp84,
	movl	16(%rbp), %ecx	 # a,
	call	ColorTint	 #
 # c:\users\pluto\scoop\apps\gcc\current\include\c++\11.2.0\raylib\raylib.h:1654: }
	.loc 4 1654 1
	addq	$32, %rsp	 #,
	popq	%rbp	 #
.LCFI25:
	ret	
.LFE1120:
	.seh_endproc
	.align 2
	.globl	_ZN5Color4fromE7Vector4
	.def	_ZN5Color4fromE7Vector4;	.scl	2;	.type	32;	.endef
	.seh_proc	_ZN5Color4fromE7Vector4
_ZN5Color4fromE7Vector4:
.LFB1121:
	.loc 4 1665 32
	pushq	%rbp	 #
	.seh_pushreg	%rbp
.LCFI26:
	pushq	%rbx	 #
	.seh_pushreg	%rbx
.LCFI27:
	subq	$72, %rsp	 #,
	.seh_stackalloc	72
.LCFI28:
	leaq	64(%rsp), %rbp	 #,
	.seh_setframe	%rbp, 64
.LCFI29:
	.seh_endprologue
	movq	%rcx, %rbx	 #, tmp84
	movq	(%rbx), %rax	 # vec, tmp85
	movq	8(%rbx), %rdx	 # vec,
	movq	%rax, -16(%rbp)	 # tmp85, vec
	movq	%rdx, -8(%rbp)	 #, vec
 # c:\users\pluto\scoop\apps\gcc\current\include\c++\11.2.0\raylib\raylib.h:1666:     return ColorFromNormalized(vec);
	.loc 4 1666 31
	movq	-16(%rbp), %rax	 # vec, tmp86
	movq	-8(%rbp), %rdx	 # vec,
	movq	%rax, -32(%rbp)	 # tmp86,
	movq	%rdx, -24(%rbp)	 #,
	leaq	-32(%rbp), %rax	 #, tmp87
	movq	%rax, %rcx	 # tmp87,
	call	ColorFromNormalized	 #
 # c:\users\pluto\scoop\apps\gcc\current\include\c++\11.2.0\raylib\raylib.h:1667: }
	.loc 4 1667 1
	addq	$72, %rsp	 #,
	popq	%rbx	 #
.LCFI30:
	popq	%rbp	 #
.LCFI31:
	ret	
.LFE1121:
	.seh_endproc
	.align 2
	.globl	_ZN5Color4fromEf
	.def	_ZN5Color4fromEf;	.scl	2;	.type	32;	.endef
	.seh_proc	_ZN5Color4fromEf
_ZN5Color4fromEf:
.LFB1122:
	.loc 4 1669 28
	pushq	%rbp	 #
	.seh_pushreg	%rbp
.LCFI32:
	pushq	%rbx	 #
	.seh_pushreg	%rbx
.LCFI33:
	subq	$40, %rsp	 #,
	.seh_stackalloc	40
.LCFI34:
	leaq	32(%rsp), %rbp	 #,
	.seh_setframe	%rbp, 32
.LCFI35:
	.seh_endprologue
	movss	%xmm0, 32(%rbp)	 # t, t
 # c:\users\pluto\scoop\apps\gcc\current\include\c++\11.2.0\raylib\raylib.h:1670:     return rgb(sinf(t)*127.0f+127.0f,sinf(t+2.0f/3.0f*PI)*127.0f+127.0f,sinf(t+4.0f/3.0f*PI)*127.0f+127.0f);
	.loc 4 1670 12
	movss	32(%rbp), %xmm0	 # t,
	call	sinf	 #
	movss	.LC1(%rip), %xmm1	 #, tmp98
	addss	%xmm0, %xmm1	 # _1, _2
	movss	.LC2(%rip), %xmm0	 #, tmp99
	mulss	%xmm1, %xmm0	 # _2, _3
	cvttss2sil	%xmm0, %eax	 # _3, tmp101
	movb	%al, %bl	 # _4, D.127141
	movss	32(%rbp), %xmm1	 # t, tmp102
	movss	.LC3(%rip), %xmm0	 #, tmp103
	addss	%xmm0, %xmm1	 # tmp103, tmp102
	movd	%xmm1, %eax	 # tmp102, _5
	movd	%eax, %xmm0	 # _5,
	call	sinf	 #
	movss	.LC1(%rip), %xmm1	 #, tmp104
	addss	%xmm0, %xmm1	 # _6, _7
	movss	.LC2(%rip), %xmm0	 #, tmp105
	mulss	%xmm1, %xmm0	 # _7, _8
	cvttss2sil	%xmm0, %eax	 # _8, tmp107
	movb	%al, %bh	 # _9, D.127141
	movss	32(%rbp), %xmm1	 # t, tmp108
	movss	.LC4(%rip), %xmm0	 #, tmp109
	addss	%xmm0, %xmm1	 # tmp109, tmp108
	movd	%xmm1, %eax	 # tmp108, _10
	movd	%eax, %xmm0	 # _10,
	call	sinf	 #
	movss	.LC1(%rip), %xmm1	 #, tmp110
	addss	%xmm0, %xmm1	 # _11, _12
	movss	.LC2(%rip), %xmm0	 #, tmp111
	mulss	%xmm1, %xmm0	 # _12, _13
	cvttss2sil	%xmm0, %eax	 # _13, tmp113
	movzbl	%al, %eax	 # _14, tmp114
	sall	$16, %eax	 #, tmp115
	movl	%ebx, %edx	 # D.127141, D.127141
	andl	$-16711681, %edx	 #, D.127141
	orl	%edx, %eax	 # tmp116, tmp117
	movl	%eax, %ebx	 # tmp117, D.127141
	movl	%ebx, %eax	 # D.127141, D.127141
	orl	$-16777216, %eax	 #, D.127141
	movl	%eax, %ebx	 # tmp119, D.127141
	movl	%ebx, %eax	 # D.127141, <retval>
 # c:\users\pluto\scoop\apps\gcc\current\include\c++\11.2.0\raylib\raylib.h:1671: }
	.loc 4 1671 1
	addq	$40, %rsp	 #,
	popq	%rbx	 #
.LCFI36:
	popq	%rbp	 #
.LCFI37:
	ret	
.LFE1122:
	.seh_endproc
	.align 2
	.globl	_ZN5Color4fromE7Vector3
	.def	_ZN5Color4fromE7Vector3;	.scl	2;	.type	32;	.endef
	.seh_proc	_ZN5Color4fromE7Vector3
_ZN5Color4fromE7Vector3:
.LFB1123:
	.loc 4 1673 32
	pushq	%rbp	 #
	.seh_pushreg	%rbp
.LCFI38:
	pushq	%rbx	 #
	.seh_pushreg	%rbx
.LCFI39:
	subq	$72, %rsp	 #,
	.seh_stackalloc	72
.LCFI40:
	leaq	64(%rsp), %rbp	 #,
	.seh_setframe	%rbp, 64
.LCFI41:
	.seh_endprologue
	movq	%rcx, %rbx	 #, tmp84
 # c:\users\pluto\scoop\apps\gcc\current\include\c++\11.2.0\raylib\raylib.h:1675:     ret = vec;
	.loc 4 1675 11
	movq	(%rbx), %rax	 # vec, tmp85
	movq	%rax, -32(%rbp)	 # tmp85,
	movl	8(%rbx), %eax	 # vec, tmp86
	movl	%eax, -24(%rbp)	 # tmp86,
	leaq	-32(%rbp), %rdx	 #, tmp87
	leaq	-4(%rbp), %rax	 #, tmp88
	movq	%rax, %rcx	 # tmp88,
	call	_ZN5ColoraSE7Vector3	 #
 # c:\users\pluto\scoop\apps\gcc\current\include\c++\11.2.0\raylib\raylib.h:1676:     return ret;
	.loc 4 1676 12
	movl	-4(%rbp), %eax	 # ret, D.127143
 # c:\users\pluto\scoop\apps\gcc\current\include\c++\11.2.0\raylib\raylib.h:1677: }
	.loc 4 1677 1
	addq	$72, %rsp	 #,
	popq	%rbx	 #
.LCFI42:
	popq	%rbp	 #
.LCFI43:
	ret	
.LFE1123:
	.seh_endproc
	.align 2
	.globl	_ZNK5Color5toHSVEv
	.def	_ZNK5Color5toHSVEv;	.scl	2;	.type	32;	.endef
	.seh_proc	_ZNK5Color5toHSVEv
_ZNK5Color5toHSVEv:
.LFB1124:
	.loc 4 1679 30
	pushq	%rbp	 #
	.seh_pushreg	%rbp
.LCFI44:
	movq	%rsp, %rbp	 #,
	.seh_setframe	%rbp, 0
.LCFI45:
	subq	$32, %rsp	 #,
	.seh_stackalloc	32
	.seh_endprologue
	movq	%rcx, 16(%rbp)	 # .result_ptr, .result_ptr
	movq	%rdx, 24(%rbp)	 # this, this
 # c:\users\pluto\scoop\apps\gcc\current\include\c++\11.2.0\raylib\raylib.h:1679: Vector3 Color::toHSV() const { return ColorToHSV(*this); }
	.loc 4 1679 49
	movq	16(%rbp), %rax	 # .result_ptr, tmp82
	movq	24(%rbp), %rdx	 # this, tmp83
	movl	(%rdx), %edx	 # *this_2(D),
	movq	%rax, %rcx	 # tmp82,
	call	ColorToHSV	 #
 # c:\users\pluto\scoop\apps\gcc\current\include\c++\11.2.0\raylib\raylib.h:1679: Vector3 Color::toHSV() const { return ColorToHSV(*this); }
	.loc 4 1679 55
	nop	
 # c:\users\pluto\scoop\apps\gcc\current\include\c++\11.2.0\raylib\raylib.h:1679: Vector3 Color::toHSV() const { return ColorToHSV(*this); }
	.loc 4 1679 58
	movq	16(%rbp), %rax	 # .result_ptr,
	addq	$32, %rsp	 #,
	popq	%rbp	 #
.LCFI46:
	ret	
.LFE1124:
	.seh_endproc
	.align 2
	.globl	_ZN5Color7fromHSVE7Vector3
	.def	_ZN5Color7fromHSVE7Vector3;	.scl	2;	.type	32;	.endef
	.seh_proc	_ZN5Color7fromHSVE7Vector3
_ZN5Color7fromHSVE7Vector3:
.LFB1125:
	.loc 4 1680 35
	pushq	%rbp	 #
	.seh_pushreg	%rbp
.LCFI47:
	pushq	%rbx	 #
	.seh_pushreg	%rbx
.LCFI48:
	subq	$40, %rsp	 #,
	.seh_stackalloc	40
.LCFI49:
	leaq	32(%rsp), %rbp	 #,
	.seh_setframe	%rbp, 32
.LCFI50:
	.seh_endprologue
	movq	%rcx, %rbx	 #, tmp87
 # c:\users\pluto\scoop\apps\gcc\current\include\c++\11.2.0\raylib\raylib.h:1680: Color Color::fromHSV(Vector3 vec) { return ColorFromHSV(vec.x, vec.y, vec.z); }
	.loc 4 1680 56
	movss	8(%rbx), %xmm1	 # vec.z, _1
	movss	4(%rbx), %xmm0	 # vec.y, _2
	movl	(%rbx), %eax	 # vec.x, _3
	movaps	%xmm1, %xmm2	 # _1,
	movaps	%xmm0, %xmm1	 # _2,
	movd	%eax, %xmm0	 # _3,
	call	ColorFromHSV	 #
 # c:\users\pluto\scoop\apps\gcc\current\include\c++\11.2.0\raylib\raylib.h:1680: Color Color::fromHSV(Vector3 vec) { return ColorFromHSV(vec.x, vec.y, vec.z); }
	.loc 4 1680 79
	addq	$40, %rsp	 #,
	popq	%rbx	 #
.LCFI51:
	popq	%rbp	 #
.LCFI52:
	ret	
.LFE1125:
	.seh_endproc
	.align 2
	.globl	_ZN5Color8setAlphaEf
	.def	_ZN5Color8setAlphaEf;	.scl	2;	.type	32;	.endef
	.seh_proc	_ZN5Color8setAlphaEf
_ZN5Color8setAlphaEf:
.LFB1126:
	.loc 4 1682 37
	pushq	%rbp	 #
	.seh_pushreg	%rbp
.LCFI53:
	movq	%rsp, %rbp	 #,
	.seh_setframe	%rbp, 0
.LCFI54:
	subq	$32, %rsp	 #,
	.seh_stackalloc	32
	.seh_endprologue
	movq	%rcx, 16(%rbp)	 # this, this
	movss	%xmm1, 24(%rbp)	 # alpha, alpha
 # c:\users\pluto\scoop\apps\gcc\current\include\c++\11.2.0\raylib\raylib.h:1683:     return *this = ColorAlpha(*this, alpha);
	.loc 4 1683 30
	movss	24(%rbp), %xmm0	 # alpha, tmp84
	movq	16(%rbp), %rax	 # this, tmp85
	movaps	%xmm0, %xmm1	 # tmp84,
	movl	(%rax), %ecx	 # MEM[(const struct Color &)this_2(D)],
	call	ColorAlpha	 #
	movl	%eax, %edx	 # tmp86, tmp87
	movq	16(%rbp), %rax	 # this, tmp88
	movl	%edx, (%rax)	 # tmp87, *this_2(D)
 # c:\users\pluto\scoop\apps\gcc\current\include\c++\11.2.0\raylib\raylib.h:1683:     return *this = ColorAlpha(*this, alpha);
	.loc 4 1683 43
	movq	16(%rbp), %rax	 # this, _5
 # c:\users\pluto\scoop\apps\gcc\current\include\c++\11.2.0\raylib\raylib.h:1684: }
	.loc 4 1684 1
	addq	$32, %rsp	 #,
	popq	%rbp	 #
.LCFI55:
	ret	
.LFE1126:
	.seh_endproc
	.align 2
	.globl	_ZN5Color6randomEv
	.def	_ZN5Color6randomEv;	.scl	2;	.type	32;	.endef
	.seh_proc	_ZN5Color6randomEv
_ZN5Color6randomEv:
.LFB1127:
	.loc 4 1686 23
	pushq	%rbp	 #
	.seh_pushreg	%rbp
.LCFI56:
	pushq	%rbx	 #
	.seh_pushreg	%rbx
.LCFI57:
	subq	$40, %rsp	 #,
	.seh_stackalloc	40
.LCFI58:
	leaq	32(%rsp), %rbp	 #,
	.seh_setframe	%rbp, 32
.LCFI59:
	.seh_endprologue
 # c:\users\pluto\scoop\apps\gcc\current\include\c++\11.2.0\raylib\raylib.h:1687:     return rgb(GetRandomValue(0, 255), GetRandomValue(0, 255), GetRandomValue(0, 255));
	.loc 4 1687 12
	movl	$255, %edx	 #,
	movl	$0, %ecx	 #,
	call	GetRandomValue	 #
	movb	%al, %bl	 # _2, D.127154
	movl	$255, %edx	 #,
	movl	$0, %ecx	 #,
	call	GetRandomValue	 #
	movb	%al, %bh	 # _4, D.127154
	movl	$255, %edx	 #,
	movl	$0, %ecx	 #,
	call	GetRandomValue	 #
	movzbl	%al, %eax	 # _6, tmp90
	sall	$16, %eax	 #, tmp91
	movl	%ebx, %edx	 # D.127154, D.127154
	andl	$-16711681, %edx	 #, D.127154
	orl	%edx, %eax	 # tmp92, tmp93
	movl	%eax, %ebx	 # tmp93, D.127154
	movl	%ebx, %eax	 # D.127154, D.127154
	orl	$-16777216, %eax	 #, D.127154
	movl	%eax, %ebx	 # tmp95, D.127154
	movl	%ebx, %eax	 # D.127154, <retval>
 # c:\users\pluto\scoop\apps\gcc\current\include\c++\11.2.0\raylib\raylib.h:1688: }
	.loc 4 1688 1
	addq	$40, %rsp	 #,
	popq	%rbx	 #
.LCFI60:
	popq	%rbp	 #
.LCFI61:
	ret	
.LFE1127:
	.seh_endproc
	.align 2
	.globl	_ZN5Color7randhueEv
	.def	_ZN5Color7randhueEv;	.scl	2;	.type	32;	.endef
	.seh_proc	_ZN5Color7randhueEv
_ZN5Color7randhueEv:
.LFB1128:
	.loc 4 1690 24
	pushq	%rbp	 #
	.seh_pushreg	%rbp
.LCFI62:
	movq	%rsp, %rbp	 #,
	.seh_setframe	%rbp, 0
.LCFI63:
	subq	$64, %rsp	 #,
	.seh_stackalloc	64
	.seh_endprologue
 # c:\users\pluto\scoop\apps\gcc\current\include\c++\11.2.0\raylib\raylib.h:1691:     return fromHSV({GetRandomValue(0, 10000)/10000.0f, 1.0f, 1.0f});
	.loc 4 1691 35
	movl	$10000, %edx	 #,
	movl	$0, %ecx	 #,
	call	GetRandomValue	 #
 # c:\users\pluto\scoop\apps\gcc\current\include\c++\11.2.0\raylib\raylib.h:1691:     return fromHSV({GetRandomValue(0, 10000)/10000.0f, 1.0f, 1.0f});
	.loc 4 1691 45
	pxor	%xmm0, %xmm0	 # _2
	cvtsi2ssl	%eax, %xmm0	 # _1, _2
	movss	.LC5(%rip), %xmm1	 #, tmp87
	divss	%xmm1, %xmm0	 # tmp87, _3
 # c:\users\pluto\scoop\apps\gcc\current\include\c++\11.2.0\raylib\raylib.h:1691:     return fromHSV({GetRandomValue(0, 10000)/10000.0f, 1.0f, 1.0f});
	.loc 4 1691 19
	movss	%xmm0, -12(%rbp)	 # _3, D.127160.x
	movss	.LC1(%rip), %xmm0	 #, tmp88
	movss	%xmm0, -8(%rbp)	 # tmp88, D.127160.y
	movss	.LC1(%rip), %xmm0	 #, tmp89
	movss	%xmm0, -4(%rbp)	 # tmp89, D.127160.z
	movq	-12(%rbp), %rax	 # D.127160, tmp90
	movq	%rax, -32(%rbp)	 # tmp90,
	movl	-4(%rbp), %eax	 # D.127160, tmp91
	movl	%eax, -24(%rbp)	 # tmp91,
	leaq	-32(%rbp), %rax	 #, tmp92
	movq	%rax, %rcx	 # tmp92,
	call	_ZN5Color7fromHSVE7Vector3	 #
 # c:\users\pluto\scoop\apps\gcc\current\include\c++\11.2.0\raylib\raylib.h:1692: }
	.loc 4 1692 1
	addq	$64, %rsp	 #,
	popq	%rbp	 #
.LCFI64:
	ret	
.LFE1128:
	.seh_endproc
	.section	.text$_Z11Vector2Zerov,"x"
	.linkonce discard
	.globl	_Z11Vector2Zerov
	.def	_Z11Vector2Zerov;	.scl	2;	.type	32;	.endef
	.seh_proc	_Z11Vector2Zerov
_Z11Vector2Zerov:
.LFB1139:
	.file 5 "c:/users/pluto/scoop/apps/gcc/current/include/c++/11.2.0/raylib/raymath.h"
	.loc 5 224 1
	pushq	%rbp	 #
	.seh_pushreg	%rbp
.LCFI65:
	movq	%rsp, %rbp	 #,
	.seh_setframe	%rbp, 0
.LCFI66:
	subq	$16, %rsp	 #,
	.seh_stackalloc	16
	.seh_endprologue
 # c:\users\pluto\scoop\apps\gcc\current\include\c++\11.2.0\raylib\raymath.h:225:     Vector2 result = { 0.0f, 0.0f };
	.loc 5 225 13
	pxor	%xmm0, %xmm0	 # tmp84
	movss	%xmm0, -8(%rbp)	 # tmp84, result.x
	pxor	%xmm0, %xmm0	 # tmp85
	movss	%xmm0, -4(%rbp)	 # tmp85, result.y
 # c:\users\pluto\scoop\apps\gcc\current\include\c++\11.2.0\raylib\raymath.h:227:     return result;
	.loc 5 227 12
	movq	-8(%rbp), %rax	 # result, D.127211
 # c:\users\pluto\scoop\apps\gcc\current\include\c++\11.2.0\raylib\raymath.h:228: }
	.loc 5 228 1
	addq	$16, %rsp	 #,
	popq	%rbp	 #
.LCFI67:
	ret	
.LFE1139:
	.seh_endproc
	.section	.text$_Z10Vector2Onev,"x"
	.linkonce discard
	.globl	_Z10Vector2Onev
	.def	_Z10Vector2Onev;	.scl	2;	.type	32;	.endef
	.seh_proc	_Z10Vector2Onev
_Z10Vector2Onev:
.LFB1140:
	.loc 5 232 1
	pushq	%rbp	 #
	.seh_pushreg	%rbp
.LCFI68:
	movq	%rsp, %rbp	 #,
	.seh_setframe	%rbp, 0
.LCFI69:
	subq	$16, %rsp	 #,
	.seh_stackalloc	16
	.seh_endprologue
 # c:\users\pluto\scoop\apps\gcc\current\include\c++\11.2.0\raylib\raymath.h:233:     Vector2 result = { 1.0f, 1.0f };
	.loc 5 233 13
	movss	.LC1(%rip), %xmm0	 #, tmp84
	movss	%xmm0, -8(%rbp)	 # tmp84, result.x
	movss	.LC1(%rip), %xmm0	 #, tmp85
	movss	%xmm0, -4(%rbp)	 # tmp85, result.y
 # c:\users\pluto\scoop\apps\gcc\current\include\c++\11.2.0\raylib\raymath.h:235:     return result;
	.loc 5 235 12
	movq	-8(%rbp), %rax	 # result, D.127216
 # c:\users\pluto\scoop\apps\gcc\current\include\c++\11.2.0\raylib\raymath.h:236: }
	.loc 5 236 1
	addq	$16, %rsp	 #,
	popq	%rbp	 #
.LCFI70:
	ret	
.LFE1140:
	.seh_endproc
	.section	.text$_Z10Vector2Add7Vector2S_,"x"
	.linkonce discard
	.globl	_Z10Vector2Add7Vector2S_
	.def	_Z10Vector2Add7Vector2S_;	.scl	2;	.type	32;	.endef
	.seh_proc	_Z10Vector2Add7Vector2S_
_Z10Vector2Add7Vector2S_:
.LFB1141:
	.loc 5 240 1
	pushq	%rbp	 #
	.seh_pushreg	%rbp
.LCFI71:
	movq	%rsp, %rbp	 #,
	.seh_setframe	%rbp, 0
.LCFI72:
	subq	$16, %rsp	 #,
	.seh_stackalloc	16
	.seh_endprologue
	movq	%rcx, 16(%rbp)	 # v1, v1
	movq	%rdx, 24(%rbp)	 # v2, v2
 # c:\users\pluto\scoop\apps\gcc\current\include\c++\11.2.0\raylib\raymath.h:241:     Vector2 result = { v1.x + v2.x, v1.y + v2.y };
	.loc 5 241 27
	movss	16(%rbp), %xmm1	 # v1.x, _1
 # c:\users\pluto\scoop\apps\gcc\current\include\c++\11.2.0\raylib\raymath.h:241:     Vector2 result = { v1.x + v2.x, v1.y + v2.y };
	.loc 5 241 34
	movss	24(%rbp), %xmm0	 # v2.x, _2
 # c:\users\pluto\scoop\apps\gcc\current\include\c++\11.2.0\raylib\raymath.h:241:     Vector2 result = { v1.x + v2.x, v1.y + v2.y };
	.loc 5 241 29
	addss	%xmm1, %xmm0	 # _1, _3
 # c:\users\pluto\scoop\apps\gcc\current\include\c++\11.2.0\raylib\raymath.h:241:     Vector2 result = { v1.x + v2.x, v1.y + v2.y };
	.loc 5 241 49
	movss	%xmm0, -8(%rbp)	 # _3, result.x
 # c:\users\pluto\scoop\apps\gcc\current\include\c++\11.2.0\raylib\raymath.h:241:     Vector2 result = { v1.x + v2.x, v1.y + v2.y };
	.loc 5 241 40
	movss	20(%rbp), %xmm1	 # v1.y, _4
 # c:\users\pluto\scoop\apps\gcc\current\include\c++\11.2.0\raylib\raymath.h:241:     Vector2 result = { v1.x + v2.x, v1.y + v2.y };
	.loc 5 241 47
	movss	28(%rbp), %xmm0	 # v2.y, _5
 # c:\users\pluto\scoop\apps\gcc\current\include\c++\11.2.0\raylib\raymath.h:241:     Vector2 result = { v1.x + v2.x, v1.y + v2.y };
	.loc 5 241 42
	addss	%xmm1, %xmm0	 # _4, _6
 # c:\users\pluto\scoop\apps\gcc\current\include\c++\11.2.0\raylib\raymath.h:241:     Vector2 result = { v1.x + v2.x, v1.y + v2.y };
	.loc 5 241 49
	movss	%xmm0, -4(%rbp)	 # _6, result.y
 # c:\users\pluto\scoop\apps\gcc\current\include\c++\11.2.0\raylib\raymath.h:243:     return result;
	.loc 5 243 12
	movq	-8(%rbp), %rax	 # result, D.127167
 # c:\users\pluto\scoop\apps\gcc\current\include\c++\11.2.0\raylib\raymath.h:244: }
	.loc 5 244 1
	addq	$16, %rsp	 #,
	popq	%rbp	 #
.LCFI73:
	ret	
.LFE1141:
	.seh_endproc
	.section	.text$_Z15Vector2AddValue7Vector2f,"x"
	.linkonce discard
	.globl	_Z15Vector2AddValue7Vector2f
	.def	_Z15Vector2AddValue7Vector2f;	.scl	2;	.type	32;	.endef
	.seh_proc	_Z15Vector2AddValue7Vector2f
_Z15Vector2AddValue7Vector2f:
.LFB1142:
	.loc 5 248 1
	pushq	%rbp	 #
	.seh_pushreg	%rbp
.LCFI74:
	movq	%rsp, %rbp	 #,
	.seh_setframe	%rbp, 0
.LCFI75:
	subq	$16, %rsp	 #,
	.seh_stackalloc	16
	.seh_endprologue
	movq	%rcx, 16(%rbp)	 # v, v
	movss	%xmm1, 24(%rbp)	 # add, add
 # c:\users\pluto\scoop\apps\gcc\current\include\c++\11.2.0\raylib\raymath.h:249:     Vector2 result = { v.x + add, v.y + add };
	.loc 5 249 26
	movss	16(%rbp), %xmm0	 # v.x, _1
 # c:\users\pluto\scoop\apps\gcc\current\include\c++\11.2.0\raylib\raymath.h:249:     Vector2 result = { v.x + add, v.y + add };
	.loc 5 249 28
	addss	24(%rbp), %xmm0	 # add, _2
 # c:\users\pluto\scoop\apps\gcc\current\include\c++\11.2.0\raylib\raymath.h:249:     Vector2 result = { v.x + add, v.y + add };
	.loc 5 249 45
	movss	%xmm0, -8(%rbp)	 # _2, result.x
 # c:\users\pluto\scoop\apps\gcc\current\include\c++\11.2.0\raylib\raymath.h:249:     Vector2 result = { v.x + add, v.y + add };
	.loc 5 249 37
	movss	20(%rbp), %xmm0	 # v.y, _3
 # c:\users\pluto\scoop\apps\gcc\current\include\c++\11.2.0\raylib\raymath.h:249:     Vector2 result = { v.x + add, v.y + add };
	.loc 5 249 39
	addss	24(%rbp), %xmm0	 # add, _4
 # c:\users\pluto\scoop\apps\gcc\current\include\c++\11.2.0\raylib\raymath.h:249:     Vector2 result = { v.x + add, v.y + add };
	.loc 5 249 45
	movss	%xmm0, -4(%rbp)	 # _4, result.y
 # c:\users\pluto\scoop\apps\gcc\current\include\c++\11.2.0\raylib\raymath.h:251:     return result;
	.loc 5 251 12
	movq	-8(%rbp), %rax	 # result, D.127187
 # c:\users\pluto\scoop\apps\gcc\current\include\c++\11.2.0\raylib\raymath.h:252: }
	.loc 5 252 1
	addq	$16, %rsp	 #,
	popq	%rbp	 #
.LCFI76:
	ret	
.LFE1142:
	.seh_endproc
	.section	.text$_Z15Vector2Subtract7Vector2S_,"x"
	.linkonce discard
	.globl	_Z15Vector2Subtract7Vector2S_
	.def	_Z15Vector2Subtract7Vector2S_;	.scl	2;	.type	32;	.endef
	.seh_proc	_Z15Vector2Subtract7Vector2S_
_Z15Vector2Subtract7Vector2S_:
.LFB1143:
	.loc 5 256 1
	pushq	%rbp	 #
	.seh_pushreg	%rbp
.LCFI77:
	movq	%rsp, %rbp	 #,
	.seh_setframe	%rbp, 0
.LCFI78:
	subq	$16, %rsp	 #,
	.seh_stackalloc	16
	.seh_endprologue
	movq	%rcx, 16(%rbp)	 # v1, v1
	movq	%rdx, 24(%rbp)	 # v2, v2
 # c:\users\pluto\scoop\apps\gcc\current\include\c++\11.2.0\raylib\raymath.h:257:     Vector2 result = { v1.x - v2.x, v1.y - v2.y };
	.loc 5 257 27
	movss	16(%rbp), %xmm0	 # v1.x, _1
 # c:\users\pluto\scoop\apps\gcc\current\include\c++\11.2.0\raylib\raymath.h:257:     Vector2 result = { v1.x - v2.x, v1.y - v2.y };
	.loc 5 257 34
	movss	24(%rbp), %xmm1	 # v2.x, _2
 # c:\users\pluto\scoop\apps\gcc\current\include\c++\11.2.0\raylib\raymath.h:257:     Vector2 result = { v1.x - v2.x, v1.y - v2.y };
	.loc 5 257 29
	subss	%xmm1, %xmm0	 # _2, _3
 # c:\users\pluto\scoop\apps\gcc\current\include\c++\11.2.0\raylib\raymath.h:257:     Vector2 result = { v1.x - v2.x, v1.y - v2.y };
	.loc 5 257 49
	movss	%xmm0, -8(%rbp)	 # _3, result.x
 # c:\users\pluto\scoop\apps\gcc\current\include\c++\11.2.0\raylib\raymath.h:257:     Vector2 result = { v1.x - v2.x, v1.y - v2.y };
	.loc 5 257 40
	movss	20(%rbp), %xmm0	 # v1.y, _4
 # c:\users\pluto\scoop\apps\gcc\current\include\c++\11.2.0\raylib\raymath.h:257:     Vector2 result = { v1.x - v2.x, v1.y - v2.y };
	.loc 5 257 47
	movss	28(%rbp), %xmm1	 # v2.y, _5
 # c:\users\pluto\scoop\apps\gcc\current\include\c++\11.2.0\raylib\raymath.h:257:     Vector2 result = { v1.x - v2.x, v1.y - v2.y };
	.loc 5 257 42
	subss	%xmm1, %xmm0	 # _5, _6
 # c:\users\pluto\scoop\apps\gcc\current\include\c++\11.2.0\raylib\raymath.h:257:     Vector2 result = { v1.x - v2.x, v1.y - v2.y };
	.loc 5 257 49
	movss	%xmm0, -4(%rbp)	 # _6, result.y
 # c:\users\pluto\scoop\apps\gcc\current\include\c++\11.2.0\raylib\raymath.h:259:     return result;
	.loc 5 259 12
	movq	-8(%rbp), %rax	 # result, D.127172
 # c:\users\pluto\scoop\apps\gcc\current\include\c++\11.2.0\raylib\raymath.h:260: }
	.loc 5 260 1
	addq	$16, %rsp	 #,
	popq	%rbp	 #
.LCFI79:
	ret	
.LFE1143:
	.seh_endproc
	.section	.text$_Z20Vector2SubtractValue7Vector2f,"x"
	.linkonce discard
	.globl	_Z20Vector2SubtractValue7Vector2f
	.def	_Z20Vector2SubtractValue7Vector2f;	.scl	2;	.type	32;	.endef
	.seh_proc	_Z20Vector2SubtractValue7Vector2f
_Z20Vector2SubtractValue7Vector2f:
.LFB1144:
	.loc 5 264 1
	pushq	%rbp	 #
	.seh_pushreg	%rbp
.LCFI80:
	movq	%rsp, %rbp	 #,
	.seh_setframe	%rbp, 0
.LCFI81:
	subq	$16, %rsp	 #,
	.seh_stackalloc	16
	.seh_endprologue
	movq	%rcx, 16(%rbp)	 # v, v
	movss	%xmm1, 24(%rbp)	 # sub, sub
 # c:\users\pluto\scoop\apps\gcc\current\include\c++\11.2.0\raylib\raymath.h:265:     Vector2 result = { v.x - sub, v.y - sub };
	.loc 5 265 26
	movss	16(%rbp), %xmm0	 # v.x, _1
 # c:\users\pluto\scoop\apps\gcc\current\include\c++\11.2.0\raylib\raymath.h:265:     Vector2 result = { v.x - sub, v.y - sub };
	.loc 5 265 28
	subss	24(%rbp), %xmm0	 # sub, _2
 # c:\users\pluto\scoop\apps\gcc\current\include\c++\11.2.0\raylib\raymath.h:265:     Vector2 result = { v.x - sub, v.y - sub };
	.loc 5 265 45
	movss	%xmm0, -8(%rbp)	 # _2, result.x
 # c:\users\pluto\scoop\apps\gcc\current\include\c++\11.2.0\raylib\raymath.h:265:     Vector2 result = { v.x - sub, v.y - sub };
	.loc 5 265 37
	movss	20(%rbp), %xmm0	 # v.y, _3
 # c:\users\pluto\scoop\apps\gcc\current\include\c++\11.2.0\raylib\raymath.h:265:     Vector2 result = { v.x - sub, v.y - sub };
	.loc 5 265 39
	subss	24(%rbp), %xmm0	 # sub, _4
 # c:\users\pluto\scoop\apps\gcc\current\include\c++\11.2.0\raylib\raymath.h:265:     Vector2 result = { v.x - sub, v.y - sub };
	.loc 5 265 45
	movss	%xmm0, -4(%rbp)	 # _4, result.y
 # c:\users\pluto\scoop\apps\gcc\current\include\c++\11.2.0\raylib\raymath.h:267:     return result;
	.loc 5 267 12
	movq	-8(%rbp), %rax	 # result, D.127192
 # c:\users\pluto\scoop\apps\gcc\current\include\c++\11.2.0\raylib\raymath.h:268: }
	.loc 5 268 1
	addq	$16, %rsp	 #,
	popq	%rbp	 #
.LCFI82:
	ret	
.LFE1144:
	.seh_endproc
	.section	.text$_Z13Vector2Length7Vector2,"x"
	.linkonce discard
	.globl	_Z13Vector2Length7Vector2
	.def	_Z13Vector2Length7Vector2;	.scl	2;	.type	32;	.endef
	.seh_proc	_Z13Vector2Length7Vector2
_Z13Vector2Length7Vector2:
.LFB1145:
	.loc 5 272 1
	pushq	%rbp	 #
	.seh_pushreg	%rbp
.LCFI83:
	movq	%rsp, %rbp	 #,
	.seh_setframe	%rbp, 0
.LCFI84:
	subq	$48, %rsp	 #,
	.seh_stackalloc	48
	.seh_endprologue
	movq	%rcx, 16(%rbp)	 # v, v
 # c:\users\pluto\scoop\apps\gcc\current\include\c++\11.2.0\raylib\raymath.h:273:     float result = sqrtf((v.x*v.x) + (v.y*v.y));
	.loc 5 273 29
	movss	16(%rbp), %xmm1	 # v.x, _1
 # c:\users\pluto\scoop\apps\gcc\current\include\c++\11.2.0\raylib\raymath.h:273:     float result = sqrtf((v.x*v.x) + (v.y*v.y));
	.loc 5 273 33
	movss	16(%rbp), %xmm0	 # v.x, _2
 # c:\users\pluto\scoop\apps\gcc\current\include\c++\11.2.0\raylib\raymath.h:273:     float result = sqrtf((v.x*v.x) + (v.y*v.y));
	.loc 5 273 30
	mulss	%xmm0, %xmm1	 # _2, _3
 # c:\users\pluto\scoop\apps\gcc\current\include\c++\11.2.0\raylib\raymath.h:273:     float result = sqrtf((v.x*v.x) + (v.y*v.y));
	.loc 5 273 41
	movss	20(%rbp), %xmm2	 # v.y, _4
 # c:\users\pluto\scoop\apps\gcc\current\include\c++\11.2.0\raylib\raymath.h:273:     float result = sqrtf((v.x*v.x) + (v.y*v.y));
	.loc 5 273 45
	movss	20(%rbp), %xmm0	 # v.y, _5
 # c:\users\pluto\scoop\apps\gcc\current\include\c++\11.2.0\raylib\raymath.h:273:     float result = sqrtf((v.x*v.x) + (v.y*v.y));
	.loc 5 273 42
	mulss	%xmm2, %xmm0	 # _4, _6
 # c:\users\pluto\scoop\apps\gcc\current\include\c++\11.2.0\raylib\raymath.h:273:     float result = sqrtf((v.x*v.x) + (v.y*v.y));
	.loc 5 273 25
	addss	%xmm0, %xmm1	 # _6, _3
	movd	%xmm1, %eax	 # _3, _7
	movd	%eax, %xmm0	 # _7,
	call	sqrtf	 #
	movd	%xmm0, %eax	 #, tmp91
	movl	%eax, -4(%rbp)	 # tmp91, result
 # c:\users\pluto\scoop\apps\gcc\current\include\c++\11.2.0\raylib\raymath.h:275:     return result;
	.loc 5 275 12
	movss	-4(%rbp), %xmm0	 # result, _10
 # c:\users\pluto\scoop\apps\gcc\current\include\c++\11.2.0\raylib\raymath.h:276: }
	.loc 5 276 1
	addq	$48, %rsp	 #,
	popq	%rbp	 #
.LCFI85:
	ret	
.LFE1145:
	.seh_endproc
	.section	.text$_Z16Vector2LengthSqr7Vector2,"x"
	.linkonce discard
	.globl	_Z16Vector2LengthSqr7Vector2
	.def	_Z16Vector2LengthSqr7Vector2;	.scl	2;	.type	32;	.endef
	.seh_proc	_Z16Vector2LengthSqr7Vector2
_Z16Vector2LengthSqr7Vector2:
.LFB1146:
	.loc 5 280 1
	pushq	%rbp	 #
	.seh_pushreg	%rbp
.LCFI86:
	movq	%rsp, %rbp	 #,
	.seh_setframe	%rbp, 0
.LCFI87:
	subq	$16, %rsp	 #,
	.seh_stackalloc	16
	.seh_endprologue
	movq	%rcx, 16(%rbp)	 # v, v
 # c:\users\pluto\scoop\apps\gcc\current\include\c++\11.2.0\raylib\raymath.h:281:     float result = (v.x*v.x) + (v.y*v.y);
	.loc 5 281 23
	movss	16(%rbp), %xmm1	 # v.x, _1
 # c:\users\pluto\scoop\apps\gcc\current\include\c++\11.2.0\raylib\raymath.h:281:     float result = (v.x*v.x) + (v.y*v.y);
	.loc 5 281 27
	movss	16(%rbp), %xmm0	 # v.x, _2
 # c:\users\pluto\scoop\apps\gcc\current\include\c++\11.2.0\raylib\raymath.h:281:     float result = (v.x*v.x) + (v.y*v.y);
	.loc 5 281 24
	mulss	%xmm0, %xmm1	 # _2, _3
 # c:\users\pluto\scoop\apps\gcc\current\include\c++\11.2.0\raylib\raymath.h:281:     float result = (v.x*v.x) + (v.y*v.y);
	.loc 5 281 35
	movss	20(%rbp), %xmm2	 # v.y, _4
 # c:\users\pluto\scoop\apps\gcc\current\include\c++\11.2.0\raylib\raymath.h:281:     float result = (v.x*v.x) + (v.y*v.y);
	.loc 5 281 39
	movss	20(%rbp), %xmm0	 # v.y, _5
 # c:\users\pluto\scoop\apps\gcc\current\include\c++\11.2.0\raylib\raymath.h:281:     float result = (v.x*v.x) + (v.y*v.y);
	.loc 5 281 36
	mulss	%xmm2, %xmm0	 # _4, _6
 # c:\users\pluto\scoop\apps\gcc\current\include\c++\11.2.0\raylib\raymath.h:281:     float result = (v.x*v.x) + (v.y*v.y);
	.loc 5 281 11
	addss	%xmm1, %xmm0	 # _3, tmp90
	movss	%xmm0, -4(%rbp)	 # tmp90, result
 # c:\users\pluto\scoop\apps\gcc\current\include\c++\11.2.0\raylib\raymath.h:283:     return result;
	.loc 5 283 12
	movss	-4(%rbp), %xmm0	 # result, _9
 # c:\users\pluto\scoop\apps\gcc\current\include\c++\11.2.0\raylib\raymath.h:284: }
	.loc 5 284 1
	addq	$16, %rsp	 #,
	popq	%rbp	 #
.LCFI88:
	ret	
.LFE1146:
	.seh_endproc
	.section	.text$_Z17Vector2DotProduct7Vector2S_,"x"
	.linkonce discard
	.globl	_Z17Vector2DotProduct7Vector2S_
	.def	_Z17Vector2DotProduct7Vector2S_;	.scl	2;	.type	32;	.endef
	.seh_proc	_Z17Vector2DotProduct7Vector2S_
_Z17Vector2DotProduct7Vector2S_:
.LFB1147:
	.loc 5 288 1
	pushq	%rbp	 #
	.seh_pushreg	%rbp
.LCFI89:
	movq	%rsp, %rbp	 #,
	.seh_setframe	%rbp, 0
.LCFI90:
	subq	$16, %rsp	 #,
	.seh_stackalloc	16
	.seh_endprologue
	movq	%rcx, 16(%rbp)	 # v1, v1
	movq	%rdx, 24(%rbp)	 # v2, v2
 # c:\users\pluto\scoop\apps\gcc\current\include\c++\11.2.0\raylib\raymath.h:289:     float result = (v1.x*v2.x + v1.y*v2.y);
	.loc 5 289 24
	movss	16(%rbp), %xmm1	 # v1.x, _1
 # c:\users\pluto\scoop\apps\gcc\current\include\c++\11.2.0\raylib\raymath.h:289:     float result = (v1.x*v2.x + v1.y*v2.y);
	.loc 5 289 29
	movss	24(%rbp), %xmm0	 # v2.x, _2
 # c:\users\pluto\scoop\apps\gcc\current\include\c++\11.2.0\raylib\raymath.h:289:     float result = (v1.x*v2.x + v1.y*v2.y);
	.loc 5 289 25
	mulss	%xmm0, %xmm1	 # _2, _3
 # c:\users\pluto\scoop\apps\gcc\current\include\c++\11.2.0\raylib\raymath.h:289:     float result = (v1.x*v2.x + v1.y*v2.y);
	.loc 5 289 36
	movss	20(%rbp), %xmm2	 # v1.y, _4
 # c:\users\pluto\scoop\apps\gcc\current\include\c++\11.2.0\raylib\raymath.h:289:     float result = (v1.x*v2.x + v1.y*v2.y);
	.loc 5 289 41
	movss	28(%rbp), %xmm0	 # v2.y, _5
 # c:\users\pluto\scoop\apps\gcc\current\include\c++\11.2.0\raylib\raymath.h:289:     float result = (v1.x*v2.x + v1.y*v2.y);
	.loc 5 289 37
	mulss	%xmm2, %xmm0	 # _4, _6
 # c:\users\pluto\scoop\apps\gcc\current\include\c++\11.2.0\raylib\raymath.h:289:     float result = (v1.x*v2.x + v1.y*v2.y);
	.loc 5 289 11
	addss	%xmm1, %xmm0	 # _3, tmp90
	movss	%xmm0, -4(%rbp)	 # tmp90, result
 # c:\users\pluto\scoop\apps\gcc\current\include\c++\11.2.0\raylib\raymath.h:291:     return result;
	.loc 5 291 12
	movss	-4(%rbp), %xmm0	 # result, _9
 # c:\users\pluto\scoop\apps\gcc\current\include\c++\11.2.0\raylib\raymath.h:292: }
	.loc 5 292 1
	addq	$16, %rsp	 #,
	popq	%rbp	 #
.LCFI91:
	ret	
.LFE1147:
	.seh_endproc
	.section	.text$_Z15Vector2Distance7Vector2S_,"x"
	.linkonce discard
	.globl	_Z15Vector2Distance7Vector2S_
	.def	_Z15Vector2Distance7Vector2S_;	.scl	2;	.type	32;	.endef
	.seh_proc	_Z15Vector2Distance7Vector2S_
_Z15Vector2Distance7Vector2S_:
.LFB1148:
	.loc 5 296 1
	pushq	%rbp	 #
	.seh_pushreg	%rbp
.LCFI92:
	movq	%rsp, %rbp	 #,
	.seh_setframe	%rbp, 0
.LCFI93:
	subq	$48, %rsp	 #,
	.seh_stackalloc	48
	.seh_endprologue
	movq	%rcx, 16(%rbp)	 # v1, v1
	movq	%rdx, 24(%rbp)	 # v2, v2
 # c:\users\pluto\scoop\apps\gcc\current\include\c++\11.2.0\raylib\raymath.h:297:     float result = sqrtf((v1.x - v2.x)*(v1.x - v2.x) + (v1.y - v2.y)*(v1.y - v2.y));
	.loc 5 297 30
	movss	16(%rbp), %xmm0	 # v1.x, _1
 # c:\users\pluto\scoop\apps\gcc\current\include\c++\11.2.0\raylib\raymath.h:297:     float result = sqrtf((v1.x - v2.x)*(v1.x - v2.x) + (v1.y - v2.y)*(v1.y - v2.y));
	.loc 5 297 37
	movss	24(%rbp), %xmm2	 # v2.x, _2
 # c:\users\pluto\scoop\apps\gcc\current\include\c++\11.2.0\raylib\raymath.h:297:     float result = sqrtf((v1.x - v2.x)*(v1.x - v2.x) + (v1.y - v2.y)*(v1.y - v2.y));
	.loc 5 297 32
	movaps	%xmm0, %xmm1	 # _1, _1
	subss	%xmm2, %xmm1	 # _2, _1
 # c:\users\pluto\scoop\apps\gcc\current\include\c++\11.2.0\raylib\raymath.h:297:     float result = sqrtf((v1.x - v2.x)*(v1.x - v2.x) + (v1.y - v2.y)*(v1.y - v2.y));
	.loc 5 297 44
	movss	16(%rbp), %xmm0	 # v1.x, _4
 # c:\users\pluto\scoop\apps\gcc\current\include\c++\11.2.0\raylib\raymath.h:297:     float result = sqrtf((v1.x - v2.x)*(v1.x - v2.x) + (v1.y - v2.y)*(v1.y - v2.y));
	.loc 5 297 51
	movss	24(%rbp), %xmm2	 # v2.x, _5
 # c:\users\pluto\scoop\apps\gcc\current\include\c++\11.2.0\raylib\raymath.h:297:     float result = sqrtf((v1.x - v2.x)*(v1.x - v2.x) + (v1.y - v2.y)*(v1.y - v2.y));
	.loc 5 297 46
	subss	%xmm2, %xmm0	 # _5, _6
 # c:\users\pluto\scoop\apps\gcc\current\include\c++\11.2.0\raylib\raymath.h:297:     float result = sqrtf((v1.x - v2.x)*(v1.x - v2.x) + (v1.y - v2.y)*(v1.y - v2.y));
	.loc 5 297 39
	mulss	%xmm0, %xmm1	 # _6, _7
 # c:\users\pluto\scoop\apps\gcc\current\include\c++\11.2.0\raylib\raymath.h:297:     float result = sqrtf((v1.x - v2.x)*(v1.x - v2.x) + (v1.y - v2.y)*(v1.y - v2.y));
	.loc 5 297 60
	movss	20(%rbp), %xmm0	 # v1.y, _8
 # c:\users\pluto\scoop\apps\gcc\current\include\c++\11.2.0\raylib\raymath.h:297:     float result = sqrtf((v1.x - v2.x)*(v1.x - v2.x) + (v1.y - v2.y)*(v1.y - v2.y));
	.loc 5 297 67
	movss	28(%rbp), %xmm3	 # v2.y, _9
 # c:\users\pluto\scoop\apps\gcc\current\include\c++\11.2.0\raylib\raymath.h:297:     float result = sqrtf((v1.x - v2.x)*(v1.x - v2.x) + (v1.y - v2.y)*(v1.y - v2.y));
	.loc 5 297 62
	movaps	%xmm0, %xmm2	 # _8, _8
	subss	%xmm3, %xmm2	 # _9, _8
 # c:\users\pluto\scoop\apps\gcc\current\include\c++\11.2.0\raylib\raymath.h:297:     float result = sqrtf((v1.x - v2.x)*(v1.x - v2.x) + (v1.y - v2.y)*(v1.y - v2.y));
	.loc 5 297 74
	movss	20(%rbp), %xmm0	 # v1.y, _11
 # c:\users\pluto\scoop\apps\gcc\current\include\c++\11.2.0\raylib\raymath.h:297:     float result = sqrtf((v1.x - v2.x)*(v1.x - v2.x) + (v1.y - v2.y)*(v1.y - v2.y));
	.loc 5 297 81
	movss	28(%rbp), %xmm3	 # v2.y, _12
 # c:\users\pluto\scoop\apps\gcc\current\include\c++\11.2.0\raylib\raymath.h:297:     float result = sqrtf((v1.x - v2.x)*(v1.x - v2.x) + (v1.y - v2.y)*(v1.y - v2.y));
	.loc 5 297 76
	subss	%xmm3, %xmm0	 # _12, _13
 # c:\users\pluto\scoop\apps\gcc\current\include\c++\11.2.0\raylib\raymath.h:297:     float result = sqrtf((v1.x - v2.x)*(v1.x - v2.x) + (v1.y - v2.y)*(v1.y - v2.y));
	.loc 5 297 69
	mulss	%xmm2, %xmm0	 # _10, _14
 # c:\users\pluto\scoop\apps\gcc\current\include\c++\11.2.0\raylib\raymath.h:297:     float result = sqrtf((v1.x - v2.x)*(v1.x - v2.x) + (v1.y - v2.y)*(v1.y - v2.y));
	.loc 5 297 25
	addss	%xmm0, %xmm1	 # _14, _7
	movd	%xmm1, %eax	 # _7, _15
	movd	%eax, %xmm0	 # _15,
	call	sqrtf	 #
	movd	%xmm0, %eax	 #, tmp99
	movl	%eax, -4(%rbp)	 # tmp99, result
 # c:\users\pluto\scoop\apps\gcc\current\include\c++\11.2.0\raylib\raymath.h:299:     return result;
	.loc 5 299 12
	movss	-4(%rbp), %xmm0	 # result, _18
 # c:\users\pluto\scoop\apps\gcc\current\include\c++\11.2.0\raylib\raymath.h:300: }
	.loc 5 300 1
	addq	$48, %rsp	 #,
	popq	%rbp	 #
.LCFI94:
	ret	
.LFE1148:
	.seh_endproc
	.section	.text$_Z18Vector2DistanceSqr7Vector2S_,"x"
	.linkonce discard
	.globl	_Z18Vector2DistanceSqr7Vector2S_
	.def	_Z18Vector2DistanceSqr7Vector2S_;	.scl	2;	.type	32;	.endef
	.seh_proc	_Z18Vector2DistanceSqr7Vector2S_
_Z18Vector2DistanceSqr7Vector2S_:
.LFB1149:
	.loc 5 304 1
	pushq	%rbp	 #
	.seh_pushreg	%rbp
.LCFI95:
	movq	%rsp, %rbp	 #,
	.seh_setframe	%rbp, 0
.LCFI96:
	subq	$16, %rsp	 #,
	.seh_stackalloc	16
	.seh_endprologue
	movq	%rcx, 16(%rbp)	 # v1, v1
	movq	%rdx, 24(%rbp)	 # v2, v2
 # c:\users\pluto\scoop\apps\gcc\current\include\c++\11.2.0\raylib\raymath.h:305:     float result = ((v1.x - v2.x)*(v1.x - v2.x) + (v1.y - v2.y)*(v1.y - v2.y));
	.loc 5 305 25
	movss	16(%rbp), %xmm0	 # v1.x, _1
 # c:\users\pluto\scoop\apps\gcc\current\include\c++\11.2.0\raylib\raymath.h:305:     float result = ((v1.x - v2.x)*(v1.x - v2.x) + (v1.y - v2.y)*(v1.y - v2.y));
	.loc 5 305 32
	movss	24(%rbp), %xmm2	 # v2.x, _2
 # c:\users\pluto\scoop\apps\gcc\current\include\c++\11.2.0\raylib\raymath.h:305:     float result = ((v1.x - v2.x)*(v1.x - v2.x) + (v1.y - v2.y)*(v1.y - v2.y));
	.loc 5 305 27
	movaps	%xmm0, %xmm1	 # _1, _1
	subss	%xmm2, %xmm1	 # _2, _1
 # c:\users\pluto\scoop\apps\gcc\current\include\c++\11.2.0\raylib\raymath.h:305:     float result = ((v1.x - v2.x)*(v1.x - v2.x) + (v1.y - v2.y)*(v1.y - v2.y));
	.loc 5 305 39
	movss	16(%rbp), %xmm0	 # v1.x, _4
 # c:\users\pluto\scoop\apps\gcc\current\include\c++\11.2.0\raylib\raymath.h:305:     float result = ((v1.x - v2.x)*(v1.x - v2.x) + (v1.y - v2.y)*(v1.y - v2.y));
	.loc 5 305 46
	movss	24(%rbp), %xmm2	 # v2.x, _5
 # c:\users\pluto\scoop\apps\gcc\current\include\c++\11.2.0\raylib\raymath.h:305:     float result = ((v1.x - v2.x)*(v1.x - v2.x) + (v1.y - v2.y)*(v1.y - v2.y));
	.loc 5 305 41
	subss	%xmm2, %xmm0	 # _5, _6
 # c:\users\pluto\scoop\apps\gcc\current\include\c++\11.2.0\raylib\raymath.h:305:     float result = ((v1.x - v2.x)*(v1.x - v2.x) + (v1.y - v2.y)*(v1.y - v2.y));
	.loc 5 305 34
	mulss	%xmm0, %xmm1	 # _6, _7
 # c:\users\pluto\scoop\apps\gcc\current\include\c++\11.2.0\raylib\raymath.h:305:     float result = ((v1.x - v2.x)*(v1.x - v2.x) + (v1.y - v2.y)*(v1.y - v2.y));
	.loc 5 305 55
	movss	20(%rbp), %xmm0	 # v1.y, _8
 # c:\users\pluto\scoop\apps\gcc\current\include\c++\11.2.0\raylib\raymath.h:305:     float result = ((v1.x - v2.x)*(v1.x - v2.x) + (v1.y - v2.y)*(v1.y - v2.y));
	.loc 5 305 62
	movss	28(%rbp), %xmm3	 # v2.y, _9
 # c:\users\pluto\scoop\apps\gcc\current\include\c++\11.2.0\raylib\raymath.h:305:     float result = ((v1.x - v2.x)*(v1.x - v2.x) + (v1.y - v2.y)*(v1.y - v2.y));
	.loc 5 305 57
	movaps	%xmm0, %xmm2	 # _8, _8
	subss	%xmm3, %xmm2	 # _9, _8
 # c:\users\pluto\scoop\apps\gcc\current\include\c++\11.2.0\raylib\raymath.h:305:     float result = ((v1.x - v2.x)*(v1.x - v2.x) + (v1.y - v2.y)*(v1.y - v2.y));
	.loc 5 305 69
	movss	20(%rbp), %xmm0	 # v1.y, _11
 # c:\users\pluto\scoop\apps\gcc\current\include\c++\11.2.0\raylib\raymath.h:305:     float result = ((v1.x - v2.x)*(v1.x - v2.x) + (v1.y - v2.y)*(v1.y - v2.y));
	.loc 5 305 76
	movss	28(%rbp), %xmm3	 # v2.y, _12
 # c:\users\pluto\scoop\apps\gcc\current\include\c++\11.2.0\raylib\raymath.h:305:     float result = ((v1.x - v2.x)*(v1.x - v2.x) + (v1.y - v2.y)*(v1.y - v2.y));
	.loc 5 305 71
	subss	%xmm3, %xmm0	 # _12, _13
 # c:\users\pluto\scoop\apps\gcc\current\include\c++\11.2.0\raylib\raymath.h:305:     float result = ((v1.x - v2.x)*(v1.x - v2.x) + (v1.y - v2.y)*(v1.y - v2.y));
	.loc 5 305 64
	mulss	%xmm2, %xmm0	 # _10, _14
 # c:\users\pluto\scoop\apps\gcc\current\include\c++\11.2.0\raylib\raymath.h:305:     float result = ((v1.x - v2.x)*(v1.x - v2.x) + (v1.y - v2.y)*(v1.y - v2.y));
	.loc 5 305 11
	addss	%xmm1, %xmm0	 # _7, tmp98
	movss	%xmm0, -4(%rbp)	 # tmp98, result
 # c:\users\pluto\scoop\apps\gcc\current\include\c++\11.2.0\raylib\raymath.h:307:     return result;
	.loc 5 307 12
	movss	-4(%rbp), %xmm0	 # result, _17
 # c:\users\pluto\scoop\apps\gcc\current\include\c++\11.2.0\raylib\raymath.h:308: }
	.loc 5 308 1
	addq	$16, %rsp	 #,
	popq	%rbp	 #
.LCFI97:
	ret	
.LFE1149:
	.seh_endproc
	.section	.text$_Z12Vector2Scale7Vector2f,"x"
	.linkonce discard
	.globl	_Z12Vector2Scale7Vector2f
	.def	_Z12Vector2Scale7Vector2f;	.scl	2;	.type	32;	.endef
	.seh_proc	_Z12Vector2Scale7Vector2f
_Z12Vector2Scale7Vector2f:
.LFB1152:
	.loc 5 343 1
	pushq	%rbp	 #
	.seh_pushreg	%rbp
.LCFI98:
	movq	%rsp, %rbp	 #,
	.seh_setframe	%rbp, 0
.LCFI99:
	subq	$16, %rsp	 #,
	.seh_stackalloc	16
	.seh_endprologue
	movq	%rcx, 16(%rbp)	 # v, v
	movss	%xmm1, 24(%rbp)	 # scale, scale
 # c:\users\pluto\scoop\apps\gcc\current\include\c++\11.2.0\raylib\raymath.h:344:     Vector2 result = { v.x*scale, v.y*scale };
	.loc 5 344 26
	movss	16(%rbp), %xmm0	 # v.x, _1
 # c:\users\pluto\scoop\apps\gcc\current\include\c++\11.2.0\raylib\raymath.h:344:     Vector2 result = { v.x*scale, v.y*scale };
	.loc 5 344 27
	mulss	24(%rbp), %xmm0	 # scale, _2
 # c:\users\pluto\scoop\apps\gcc\current\include\c++\11.2.0\raylib\raymath.h:344:     Vector2 result = { v.x*scale, v.y*scale };
	.loc 5 344 45
	movss	%xmm0, -8(%rbp)	 # _2, result.x
 # c:\users\pluto\scoop\apps\gcc\current\include\c++\11.2.0\raylib\raymath.h:344:     Vector2 result = { v.x*scale, v.y*scale };
	.loc 5 344 37
	movss	20(%rbp), %xmm0	 # v.y, _3
 # c:\users\pluto\scoop\apps\gcc\current\include\c++\11.2.0\raylib\raymath.h:344:     Vector2 result = { v.x*scale, v.y*scale };
	.loc 5 344 38
	mulss	24(%rbp), %xmm0	 # scale, _4
 # c:\users\pluto\scoop\apps\gcc\current\include\c++\11.2.0\raylib\raymath.h:344:     Vector2 result = { v.x*scale, v.y*scale };
	.loc 5 344 45
	movss	%xmm0, -4(%rbp)	 # _4, result.y
 # c:\users\pluto\scoop\apps\gcc\current\include\c++\11.2.0\raylib\raymath.h:346:     return result;
	.loc 5 346 12
	movq	-8(%rbp), %rax	 # result, D.127197
 # c:\users\pluto\scoop\apps\gcc\current\include\c++\11.2.0\raylib\raymath.h:347: }
	.loc 5 347 1
	addq	$16, %rsp	 #,
	popq	%rbp	 #
.LCFI100:
	ret	
.LFE1152:
	.seh_endproc
	.section	.text$_Z15Vector2Multiply7Vector2S_,"x"
	.linkonce discard
	.globl	_Z15Vector2Multiply7Vector2S_
	.def	_Z15Vector2Multiply7Vector2S_;	.scl	2;	.type	32;	.endef
	.seh_proc	_Z15Vector2Multiply7Vector2S_
_Z15Vector2Multiply7Vector2S_:
.LFB1153:
	.loc 5 351 1
	pushq	%rbp	 #
	.seh_pushreg	%rbp
.LCFI101:
	movq	%rsp, %rbp	 #,
	.seh_setframe	%rbp, 0
.LCFI102:
	subq	$16, %rsp	 #,
	.seh_stackalloc	16
	.seh_endprologue
	movq	%rcx, 16(%rbp)	 # v1, v1
	movq	%rdx, 24(%rbp)	 # v2, v2
 # c:\users\pluto\scoop\apps\gcc\current\include\c++\11.2.0\raylib\raymath.h:352:     Vector2 result = { v1.x*v2.x, v1.y*v2.y };
	.loc 5 352 27
	movss	16(%rbp), %xmm1	 # v1.x, _1
 # c:\users\pluto\scoop\apps\gcc\current\include\c++\11.2.0\raylib\raymath.h:352:     Vector2 result = { v1.x*v2.x, v1.y*v2.y };
	.loc 5 352 32
	movss	24(%rbp), %xmm0	 # v2.x, _2
 # c:\users\pluto\scoop\apps\gcc\current\include\c++\11.2.0\raylib\raymath.h:352:     Vector2 result = { v1.x*v2.x, v1.y*v2.y };
	.loc 5 352 28
	mulss	%xmm1, %xmm0	 # _1, _3
 # c:\users\pluto\scoop\apps\gcc\current\include\c++\11.2.0\raylib\raymath.h:352:     Vector2 result = { v1.x*v2.x, v1.y*v2.y };
	.loc 5 352 45
	movss	%xmm0, -8(%rbp)	 # _3, result.x
 # c:\users\pluto\scoop\apps\gcc\current\include\c++\11.2.0\raylib\raymath.h:352:     Vector2 result = { v1.x*v2.x, v1.y*v2.y };
	.loc 5 352 38
	movss	20(%rbp), %xmm1	 # v1.y, _4
 # c:\users\pluto\scoop\apps\gcc\current\include\c++\11.2.0\raylib\raymath.h:352:     Vector2 result = { v1.x*v2.x, v1.y*v2.y };
	.loc 5 352 43
	movss	28(%rbp), %xmm0	 # v2.y, _5
 # c:\users\pluto\scoop\apps\gcc\current\include\c++\11.2.0\raylib\raymath.h:352:     Vector2 result = { v1.x*v2.x, v1.y*v2.y };
	.loc 5 352 39
	mulss	%xmm1, %xmm0	 # _4, _6
 # c:\users\pluto\scoop\apps\gcc\current\include\c++\11.2.0\raylib\raymath.h:352:     Vector2 result = { v1.x*v2.x, v1.y*v2.y };
	.loc 5 352 45
	movss	%xmm0, -4(%rbp)	 # _6, result.y
 # c:\users\pluto\scoop\apps\gcc\current\include\c++\11.2.0\raylib\raymath.h:354:     return result;
	.loc 5 354 12
	movq	-8(%rbp), %rax	 # result, D.127177
 # c:\users\pluto\scoop\apps\gcc\current\include\c++\11.2.0\raylib\raymath.h:355: }
	.loc 5 355 1
	addq	$16, %rsp	 #,
	popq	%rbp	 #
.LCFI103:
	ret	
.LFE1153:
	.seh_endproc
	.section	.text$_Z13Vector2Divide7Vector2S_,"x"
	.linkonce discard
	.globl	_Z13Vector2Divide7Vector2S_
	.def	_Z13Vector2Divide7Vector2S_;	.scl	2;	.type	32;	.endef
	.seh_proc	_Z13Vector2Divide7Vector2S_
_Z13Vector2Divide7Vector2S_:
.LFB1155:
	.loc 5 367 1
	pushq	%rbp	 #
	.seh_pushreg	%rbp
.LCFI104:
	movq	%rsp, %rbp	 #,
	.seh_setframe	%rbp, 0
.LCFI105:
	subq	$16, %rsp	 #,
	.seh_stackalloc	16
	.seh_endprologue
	movq	%rcx, 16(%rbp)	 # v1, v1
	movq	%rdx, 24(%rbp)	 # v2, v2
 # c:\users\pluto\scoop\apps\gcc\current\include\c++\11.2.0\raylib\raymath.h:368:     Vector2 result = { v1.x/v2.x, v1.y/v2.y };
	.loc 5 368 27
	movss	16(%rbp), %xmm0	 # v1.x, _1
 # c:\users\pluto\scoop\apps\gcc\current\include\c++\11.2.0\raylib\raymath.h:368:     Vector2 result = { v1.x/v2.x, v1.y/v2.y };
	.loc 5 368 32
	movss	24(%rbp), %xmm1	 # v2.x, _2
 # c:\users\pluto\scoop\apps\gcc\current\include\c++\11.2.0\raylib\raymath.h:368:     Vector2 result = { v1.x/v2.x, v1.y/v2.y };
	.loc 5 368 28
	divss	%xmm1, %xmm0	 # _2, _3
 # c:\users\pluto\scoop\apps\gcc\current\include\c++\11.2.0\raylib\raymath.h:368:     Vector2 result = { v1.x/v2.x, v1.y/v2.y };
	.loc 5 368 45
	movss	%xmm0, -8(%rbp)	 # _3, result.x
 # c:\users\pluto\scoop\apps\gcc\current\include\c++\11.2.0\raylib\raymath.h:368:     Vector2 result = { v1.x/v2.x, v1.y/v2.y };
	.loc 5 368 38
	movss	20(%rbp), %xmm0	 # v1.y, _4
 # c:\users\pluto\scoop\apps\gcc\current\include\c++\11.2.0\raylib\raymath.h:368:     Vector2 result = { v1.x/v2.x, v1.y/v2.y };
	.loc 5 368 43
	movss	28(%rbp), %xmm1	 # v2.y, _5
 # c:\users\pluto\scoop\apps\gcc\current\include\c++\11.2.0\raylib\raymath.h:368:     Vector2 result = { v1.x/v2.x, v1.y/v2.y };
	.loc 5 368 39
	divss	%xmm1, %xmm0	 # _5, _6
 # c:\users\pluto\scoop\apps\gcc\current\include\c++\11.2.0\raylib\raymath.h:368:     Vector2 result = { v1.x/v2.x, v1.y/v2.y };
	.loc 5 368 45
	movss	%xmm0, -4(%rbp)	 # _6, result.y
 # c:\users\pluto\scoop\apps\gcc\current\include\c++\11.2.0\raylib\raymath.h:370:     return result;
	.loc 5 370 12
	movq	-8(%rbp), %rax	 # result, D.127182
 # c:\users\pluto\scoop\apps\gcc\current\include\c++\11.2.0\raylib\raymath.h:371: }
	.loc 5 371 1
	addq	$16, %rsp	 #,
	popq	%rbp	 #
.LCFI106:
	ret	
.LFE1155:
	.seh_endproc
	.section	.text$_Z16Vector2Normalize7Vector2,"x"
	.linkonce discard
	.globl	_Z16Vector2Normalize7Vector2
	.def	_Z16Vector2Normalize7Vector2;	.scl	2;	.type	32;	.endef
	.seh_proc	_Z16Vector2Normalize7Vector2
_Z16Vector2Normalize7Vector2:
.LFB1156:
	.loc 5 375 1
	pushq	%rbp	 #
	.seh_pushreg	%rbp
.LCFI107:
	movq	%rsp, %rbp	 #,
	.seh_setframe	%rbp, 0
.LCFI108:
	subq	$48, %rsp	 #,
	.seh_stackalloc	48
	.seh_endprologue
	movq	%rcx, 16(%rbp)	 # v, v
 # c:\users\pluto\scoop\apps\gcc\current\include\c++\11.2.0\raylib\raymath.h:376:     Vector2 result = { 0 };
	.loc 5 376 13
	movq	$0, -16(%rbp)	 #, result
 # c:\users\pluto\scoop\apps\gcc\current\include\c++\11.2.0\raylib\raymath.h:377:     float length = sqrtf((v.x*v.x) + (v.y*v.y));
	.loc 5 377 29
	movss	16(%rbp), %xmm1	 # v.x, _1
 # c:\users\pluto\scoop\apps\gcc\current\include\c++\11.2.0\raylib\raymath.h:377:     float length = sqrtf((v.x*v.x) + (v.y*v.y));
	.loc 5 377 33
	movss	16(%rbp), %xmm0	 # v.x, _2
 # c:\users\pluto\scoop\apps\gcc\current\include\c++\11.2.0\raylib\raymath.h:377:     float length = sqrtf((v.x*v.x) + (v.y*v.y));
	.loc 5 377 30
	mulss	%xmm0, %xmm1	 # _2, _3
 # c:\users\pluto\scoop\apps\gcc\current\include\c++\11.2.0\raylib\raymath.h:377:     float length = sqrtf((v.x*v.x) + (v.y*v.y));
	.loc 5 377 41
	movss	20(%rbp), %xmm2	 # v.y, _4
 # c:\users\pluto\scoop\apps\gcc\current\include\c++\11.2.0\raylib\raymath.h:377:     float length = sqrtf((v.x*v.x) + (v.y*v.y));
	.loc 5 377 45
	movss	20(%rbp), %xmm0	 # v.y, _5
 # c:\users\pluto\scoop\apps\gcc\current\include\c++\11.2.0\raylib\raymath.h:377:     float length = sqrtf((v.x*v.x) + (v.y*v.y));
	.loc 5 377 42
	mulss	%xmm2, %xmm0	 # _4, _6
 # c:\users\pluto\scoop\apps\gcc\current\include\c++\11.2.0\raylib\raymath.h:377:     float length = sqrtf((v.x*v.x) + (v.y*v.y));
	.loc 5 377 25
	addss	%xmm0, %xmm1	 # _6, _3
	movd	%xmm1, %eax	 # _3, _7
	movd	%eax, %xmm0	 # _7,
	call	sqrtf	 #
	movd	%xmm0, %eax	 #, tmp95
	movl	%eax, -4(%rbp)	 # tmp95, length
.LBB18:
 # c:\users\pluto\scoop\apps\gcc\current\include\c++\11.2.0\raylib\raymath.h:379:     if (length > 0)
	.loc 5 379 5
	pxor	%xmm0, %xmm0	 # tmp96
	comiss	-4(%rbp), %xmm0	 # length, tmp96
	jnb	.L67	 #,
.LBB19:
 # c:\users\pluto\scoop\apps\gcc\current\include\c++\11.2.0\raylib\raymath.h:381:         float ilength = 1.0f/length;
	.loc 5 381 15
	movss	.LC1(%rip), %xmm0	 #, tmp98
	divss	-4(%rbp), %xmm0	 # length, tmp97
	movss	%xmm0, -8(%rbp)	 # tmp97, ilength
 # c:\users\pluto\scoop\apps\gcc\current\include\c++\11.2.0\raylib\raymath.h:382:         result.x = v.x*ilength;
	.loc 5 382 22
	movss	16(%rbp), %xmm0	 # v.x, _8
 # c:\users\pluto\scoop\apps\gcc\current\include\c++\11.2.0\raylib\raymath.h:382:         result.x = v.x*ilength;
	.loc 5 382 23
	mulss	-8(%rbp), %xmm0	 # ilength, _9
 # c:\users\pluto\scoop\apps\gcc\current\include\c++\11.2.0\raylib\raymath.h:382:         result.x = v.x*ilength;
	.loc 5 382 18
	movss	%xmm0, -16(%rbp)	 # _9, result.x
 # c:\users\pluto\scoop\apps\gcc\current\include\c++\11.2.0\raylib\raymath.h:383:         result.y = v.y*ilength;
	.loc 5 383 22
	movss	20(%rbp), %xmm0	 # v.y, _10
 # c:\users\pluto\scoop\apps\gcc\current\include\c++\11.2.0\raylib\raymath.h:383:         result.y = v.y*ilength;
	.loc 5 383 23
	mulss	-8(%rbp), %xmm0	 # ilength, _11
 # c:\users\pluto\scoop\apps\gcc\current\include\c++\11.2.0\raylib\raymath.h:383:         result.y = v.y*ilength;
	.loc 5 383 18
	movss	%xmm0, -12(%rbp)	 # _11, result.y
.L67:
.LBE19:
.LBE18:
 # c:\users\pluto\scoop\apps\gcc\current\include\c++\11.2.0\raylib\raymath.h:386:     return result;
	.loc 5 386 12
	movq	-16(%rbp), %rax	 # result, D.127247
 # c:\users\pluto\scoop\apps\gcc\current\include\c++\11.2.0\raylib\raymath.h:387: }
	.loc 5 387 1
	addq	$48, %rsp	 #,
	popq	%rbp	 #
.LCFI109:
	ret	
.LFE1156:
	.seh_endproc
	.section	.text$_Z18Vector2MoveTowards7Vector2S_f,"x"
	.linkonce discard
	.globl	_Z18Vector2MoveTowards7Vector2S_f
	.def	_Z18Vector2MoveTowards7Vector2S_f;	.scl	2;	.type	32;	.endef
	.seh_proc	_Z18Vector2MoveTowards7Vector2S_f
_Z18Vector2MoveTowards7Vector2S_f:
.LFB1161:
	.loc 5 444 1
	pushq	%rbp	 #
	.seh_pushreg	%rbp
.LCFI110:
	movq	%rsp, %rbp	 #,
	.seh_setframe	%rbp, 0
.LCFI111:
	subq	$64, %rsp	 #,
	.seh_stackalloc	64
	.seh_endprologue
	movq	%rcx, 16(%rbp)	 # v, v
	movq	%rdx, 24(%rbp)	 # target, target
	movss	%xmm2, 32(%rbp)	 # maxDistance, maxDistance
 # c:\users\pluto\scoop\apps\gcc\current\include\c++\11.2.0\raylib\raymath.h:445:     Vector2 result = { 0 };
	.loc 5 445 13
	movq	$0, -24(%rbp)	 #, result
 # c:\users\pluto\scoop\apps\gcc\current\include\c++\11.2.0\raylib\raymath.h:447:     float dx = target.x - v.x;
	.loc 5 447 23
	movss	24(%rbp), %xmm0	 # target.x, _1
 # c:\users\pluto\scoop\apps\gcc\current\include\c++\11.2.0\raylib\raymath.h:447:     float dx = target.x - v.x;
	.loc 5 447 29
	movss	16(%rbp), %xmm1	 # v.x, _2
 # c:\users\pluto\scoop\apps\gcc\current\include\c++\11.2.0\raylib\raymath.h:447:     float dx = target.x - v.x;
	.loc 5 447 11
	subss	%xmm1, %xmm0	 # _2, tmp99
	movss	%xmm0, -4(%rbp)	 # tmp99, dx
 # c:\users\pluto\scoop\apps\gcc\current\include\c++\11.2.0\raylib\raymath.h:448:     float dy = target.y - v.y;
	.loc 5 448 23
	movss	28(%rbp), %xmm0	 # target.y, _3
 # c:\users\pluto\scoop\apps\gcc\current\include\c++\11.2.0\raylib\raymath.h:448:     float dy = target.y - v.y;
	.loc 5 448 29
	movss	20(%rbp), %xmm1	 # v.y, _4
 # c:\users\pluto\scoop\apps\gcc\current\include\c++\11.2.0\raylib\raymath.h:448:     float dy = target.y - v.y;
	.loc 5 448 11
	subss	%xmm1, %xmm0	 # _4, tmp100
	movss	%xmm0, -8(%rbp)	 # tmp100, dy
 # c:\users\pluto\scoop\apps\gcc\current\include\c++\11.2.0\raylib\raymath.h:449:     float value = (dx*dx) + (dy*dy);
	.loc 5 449 22
	movss	-4(%rbp), %xmm0	 # dx, tmp101
	movaps	%xmm0, %xmm1	 # tmp101, tmp101
	mulss	%xmm0, %xmm1	 # tmp101, tmp101
 # c:\users\pluto\scoop\apps\gcc\current\include\c++\11.2.0\raylib\raymath.h:449:     float value = (dx*dx) + (dy*dy);
	.loc 5 449 32
	movss	-8(%rbp), %xmm0	 # dy, tmp102
	mulss	%xmm0, %xmm0	 # tmp102, _6
 # c:\users\pluto\scoop\apps\gcc\current\include\c++\11.2.0\raylib\raymath.h:449:     float value = (dx*dx) + (dy*dy);
	.loc 5 449 11
	addss	%xmm1, %xmm0	 # _5, tmp103
	movss	%xmm0, -12(%rbp)	 # tmp103, value
 # c:\users\pluto\scoop\apps\gcc\current\include\c++\11.2.0\raylib\raymath.h:451:     if ((value == 0) || ((maxDistance >= 0) && (value <= maxDistance*maxDistance))) return target;
	.loc 5 451 5
	pxor	%xmm0, %xmm0	 # tmp104
	comiss	-12(%rbp), %xmm0	 # value, tmp104
	je	.L72	 #,
 # c:\users\pluto\scoop\apps\gcc\current\include\c++\11.2.0\raylib\raymath.h:451:     if ((value == 0) || ((maxDistance >= 0) && (value <= maxDistance*maxDistance))) return target;
	.loc 5 451 22 discriminator 2
	pxor	%xmm0, %xmm0	 # tmp105
	comiss	32(%rbp), %xmm0	 # maxDistance, tmp105
	ja	.L73	 #,
 # c:\users\pluto\scoop\apps\gcc\current\include\c++\11.2.0\raylib\raymath.h:451:     if ((value == 0) || ((maxDistance >= 0) && (value <= maxDistance*maxDistance))) return target;
	.loc 5 451 69 discriminator 3
	movss	32(%rbp), %xmm0	 # maxDistance, tmp106
	mulss	%xmm0, %xmm0	 # tmp106, _7
 # c:\users\pluto\scoop\apps\gcc\current\include\c++\11.2.0\raylib\raymath.h:451:     if ((value == 0) || ((maxDistance >= 0) && (value <= maxDistance*maxDistance))) return target;
	.loc 5 451 45 discriminator 3
	comiss	-12(%rbp), %xmm0	 # value, _7
	jb	.L73	 #,
.L72:
 # c:\users\pluto\scoop\apps\gcc\current\include\c++\11.2.0\raylib\raymath.h:451:     if ((value == 0) || ((maxDistance >= 0) && (value <= maxDistance*maxDistance))) return target;
	.loc 5 451 92 discriminator 4
	movq	24(%rbp), %rax	 # target, D.127275
	jmp	.L77	 #
.L73:
 # c:\users\pluto\scoop\apps\gcc\current\include\c++\11.2.0\raylib\raymath.h:453:     float dist = sqrtf(value);
	.loc 5 453 23
	movl	-12(%rbp), %eax	 # value, tmp107
	movd	%eax, %xmm0	 # tmp107,
	call	sqrtf	 #
	movd	%xmm0, %eax	 #, tmp108
	movl	%eax, -16(%rbp)	 # tmp108, dist
 # c:\users\pluto\scoop\apps\gcc\current\include\c++\11.2.0\raylib\raymath.h:455:     result.x = v.x + dx/dist*maxDistance;
	.loc 5 455 18
	movss	16(%rbp), %xmm1	 # v.x, _8
 # c:\users\pluto\scoop\apps\gcc\current\include\c++\11.2.0\raylib\raymath.h:455:     result.x = v.x + dx/dist*maxDistance;
	.loc 5 455 24
	movss	-4(%rbp), %xmm0	 # dx, tmp109
	divss	-16(%rbp), %xmm0	 # dist, _9
 # c:\users\pluto\scoop\apps\gcc\current\include\c++\11.2.0\raylib\raymath.h:455:     result.x = v.x + dx/dist*maxDistance;
	.loc 5 455 29
	mulss	32(%rbp), %xmm0	 # maxDistance, _10
 # c:\users\pluto\scoop\apps\gcc\current\include\c++\11.2.0\raylib\raymath.h:455:     result.x = v.x + dx/dist*maxDistance;
	.loc 5 455 20
	addss	%xmm1, %xmm0	 # _8, _11
 # c:\users\pluto\scoop\apps\gcc\current\include\c++\11.2.0\raylib\raymath.h:455:     result.x = v.x + dx/dist*maxDistance;
	.loc 5 455 14
	movss	%xmm0, -24(%rbp)	 # _11, result.x
 # c:\users\pluto\scoop\apps\gcc\current\include\c++\11.2.0\raylib\raymath.h:456:     result.y = v.y + dy/dist*maxDistance;
	.loc 5 456 18
	movss	20(%rbp), %xmm1	 # v.y, _12
 # c:\users\pluto\scoop\apps\gcc\current\include\c++\11.2.0\raylib\raymath.h:456:     result.y = v.y + dy/dist*maxDistance;
	.loc 5 456 24
	movss	-8(%rbp), %xmm0	 # dy, tmp110
	divss	-16(%rbp), %xmm0	 # dist, _13
 # c:\users\pluto\scoop\apps\gcc\current\include\c++\11.2.0\raylib\raymath.h:456:     result.y = v.y + dy/dist*maxDistance;
	.loc 5 456 29
	mulss	32(%rbp), %xmm0	 # maxDistance, _14
 # c:\users\pluto\scoop\apps\gcc\current\include\c++\11.2.0\raylib\raymath.h:456:     result.y = v.y + dy/dist*maxDistance;
	.loc 5 456 20
	addss	%xmm1, %xmm0	 # _12, _15
 # c:\users\pluto\scoop\apps\gcc\current\include\c++\11.2.0\raylib\raymath.h:456:     result.y = v.y + dy/dist*maxDistance;
	.loc 5 456 14
	movss	%xmm0, -20(%rbp)	 # _15, result.y
 # c:\users\pluto\scoop\apps\gcc\current\include\c++\11.2.0\raylib\raymath.h:458:     return result;
	.loc 5 458 12
	movq	-24(%rbp), %rax	 # result, D.127275
.L77:
 # c:\users\pluto\scoop\apps\gcc\current\include\c++\11.2.0\raylib\raymath.h:459: }
	.loc 5 459 1 discriminator 1
	addq	$64, %rsp	 #,
	popq	%rbp	 #
.LCFI112:
	ret	
.LFE1161:
	.seh_endproc
	.section	.text$_Z12Vector2Clamp7Vector2S_S_,"x"
	.linkonce discard
	.globl	_Z12Vector2Clamp7Vector2S_S_
	.def	_Z12Vector2Clamp7Vector2S_S_;	.scl	2;	.type	32;	.endef
	.seh_proc	_Z12Vector2Clamp7Vector2S_S_
_Z12Vector2Clamp7Vector2S_S_:
.LFB1163:
	.loc 5 472 1
	pushq	%rbp	 #
	.seh_pushreg	%rbp
.LCFI113:
	movq	%rsp, %rbp	 #,
	.seh_setframe	%rbp, 0
.LCFI114:
	subq	$16, %rsp	 #,
	.seh_stackalloc	16
	.seh_endprologue
	movq	%rcx, 16(%rbp)	 # v, v
	movq	%rdx, 24(%rbp)	 # min, min
	movq	%r8, 32(%rbp)	 # max, max
 # c:\users\pluto\scoop\apps\gcc\current\include\c++\11.2.0\raylib\raymath.h:473:     Vector2 result = { 0 };
	.loc 5 473 13
	movq	$0, -8(%rbp)	 #, result
 # c:\users\pluto\scoop\apps\gcc\current\include\c++\11.2.0\raylib\raymath.h:475:     result.x = fminf(max.x, fmaxf(min.x, v.x));
	.loc 5 475 21
	movss	16(%rbp), %xmm1	 # v.x, _1
	movss	24(%rbp), %xmm0	 # min.x, _2
	maxss	%xmm0, %xmm1	 # _2, _3
	movss	32(%rbp), %xmm0	 # max.x, _4
	minss	%xmm1, %xmm0	 # _3, _5
 # c:\users\pluto\scoop\apps\gcc\current\include\c++\11.2.0\raylib\raymath.h:475:     result.x = fminf(max.x, fmaxf(min.x, v.x));
	.loc 5 475 14
	movss	%xmm0, -8(%rbp)	 # _5, result.x
 # c:\users\pluto\scoop\apps\gcc\current\include\c++\11.2.0\raylib\raymath.h:476:     result.y = fminf(max.y, fmaxf(min.y, v.y));
	.loc 5 476 21
	movss	20(%rbp), %xmm1	 # v.y, _6
	movss	28(%rbp), %xmm0	 # min.y, _7
	maxss	%xmm0, %xmm1	 # _7, _8
	movss	36(%rbp), %xmm0	 # max.y, _9
	minss	%xmm1, %xmm0	 # _8, _10
 # c:\users\pluto\scoop\apps\gcc\current\include\c++\11.2.0\raylib\raymath.h:476:     result.y = fminf(max.y, fmaxf(min.y, v.y));
	.loc 5 476 14
	movss	%xmm0, -4(%rbp)	 # _10, result.y
 # c:\users\pluto\scoop\apps\gcc\current\include\c++\11.2.0\raylib\raymath.h:478:     return result;
	.loc 5 478 12
	movq	-8(%rbp), %rax	 # result, D.127266
 # c:\users\pluto\scoop\apps\gcc\current\include\c++\11.2.0\raylib\raymath.h:479: }
	.loc 5 479 1
	addq	$16, %rsp	 #,
	popq	%rbp	 #
.LCFI115:
	ret	
.LFE1163:
	.seh_endproc
	.section	.text$_Z17Vector2ClampValue7Vector2ff,"x"
	.linkonce discard
	.globl	_Z17Vector2ClampValue7Vector2ff
	.def	_Z17Vector2ClampValue7Vector2ff;	.scl	2;	.type	32;	.endef
	.seh_proc	_Z17Vector2ClampValue7Vector2ff
_Z17Vector2ClampValue7Vector2ff:
.LFB1164:
	.loc 5 483 1
	pushq	%rbp	 #
	.seh_pushreg	%rbp
.LCFI116:
	movq	%rsp, %rbp	 #,
	.seh_setframe	%rbp, 0
.LCFI117:
	subq	$64, %rsp	 #,
	.seh_stackalloc	64
	.seh_endprologue
	movq	%rcx, 16(%rbp)	 # v, v
	movss	%xmm1, 24(%rbp)	 # min, min
	movss	%xmm2, 32(%rbp)	 # max, max
 # c:\users\pluto\scoop\apps\gcc\current\include\c++\11.2.0\raylib\raymath.h:484:     Vector2 result = v;
	.loc 5 484 13
	movq	16(%rbp), %rax	 # v, tmp98
	movq	%rax, -20(%rbp)	 # tmp98, result
 # c:\users\pluto\scoop\apps\gcc\current\include\c++\11.2.0\raylib\raymath.h:486:     float length = (v.x*v.x) + (v.y*v.y);
	.loc 5 486 23
	movss	16(%rbp), %xmm1	 # v.x, _1
 # c:\users\pluto\scoop\apps\gcc\current\include\c++\11.2.0\raylib\raymath.h:486:     float length = (v.x*v.x) + (v.y*v.y);
	.loc 5 486 27
	movss	16(%rbp), %xmm0	 # v.x, _2
 # c:\users\pluto\scoop\apps\gcc\current\include\c++\11.2.0\raylib\raymath.h:486:     float length = (v.x*v.x) + (v.y*v.y);
	.loc 5 486 24
	mulss	%xmm0, %xmm1	 # _2, _3
 # c:\users\pluto\scoop\apps\gcc\current\include\c++\11.2.0\raylib\raymath.h:486:     float length = (v.x*v.x) + (v.y*v.y);
	.loc 5 486 35
	movss	20(%rbp), %xmm2	 # v.y, _4
 # c:\users\pluto\scoop\apps\gcc\current\include\c++\11.2.0\raylib\raymath.h:486:     float length = (v.x*v.x) + (v.y*v.y);
	.loc 5 486 39
	movss	20(%rbp), %xmm0	 # v.y, _5
 # c:\users\pluto\scoop\apps\gcc\current\include\c++\11.2.0\raylib\raymath.h:486:     float length = (v.x*v.x) + (v.y*v.y);
	.loc 5 486 36
	mulss	%xmm2, %xmm0	 # _4, _6
 # c:\users\pluto\scoop\apps\gcc\current\include\c++\11.2.0\raylib\raymath.h:486:     float length = (v.x*v.x) + (v.y*v.y);
	.loc 5 486 11
	addss	%xmm1, %xmm0	 # _3, tmp99
	movss	%xmm0, -4(%rbp)	 # tmp99, length
.LBB20:
 # c:\users\pluto\scoop\apps\gcc\current\include\c++\11.2.0\raylib\raymath.h:487:     if (length > 0.0f)
	.loc 5 487 5
	pxor	%xmm0, %xmm0	 # tmp100
	comiss	-4(%rbp), %xmm0	 # length, tmp100
	jnb	.L82	 #,
.LBB21:
 # c:\users\pluto\scoop\apps\gcc\current\include\c++\11.2.0\raylib\raymath.h:489:         length = sqrtf(length);
	.loc 5 489 23
	movl	-4(%rbp), %eax	 # length, tmp101
	movd	%eax, %xmm0	 # tmp101,
	call	sqrtf	 #
	movd	%xmm0, %eax	 #, tmp102
	movl	%eax, -4(%rbp)	 # tmp102, length
.LBB22:
 # c:\users\pluto\scoop\apps\gcc\current\include\c++\11.2.0\raylib\raymath.h:491:         if (length < min)
	.loc 5 491 9
	movss	24(%rbp), %xmm0	 # min, tmp103
	comiss	-4(%rbp), %xmm0	 # length, tmp103
	jbe	.L91	 #,
.LBB23:
 # c:\users\pluto\scoop\apps\gcc\current\include\c++\11.2.0\raylib\raymath.h:493:             float scale = min/length;
	.loc 5 493 19
	movss	24(%rbp), %xmm0	 # min, tmp105
	divss	-4(%rbp), %xmm0	 # length, tmp104
	movss	%xmm0, -12(%rbp)	 # tmp104, scale
 # c:\users\pluto\scoop\apps\gcc\current\include\c++\11.2.0\raylib\raymath.h:494:             result.x = v.x*scale;
	.loc 5 494 26
	movss	16(%rbp), %xmm0	 # v.x, _7
 # c:\users\pluto\scoop\apps\gcc\current\include\c++\11.2.0\raylib\raymath.h:494:             result.x = v.x*scale;
	.loc 5 494 27
	mulss	-12(%rbp), %xmm0	 # scale, _8
 # c:\users\pluto\scoop\apps\gcc\current\include\c++\11.2.0\raylib\raymath.h:494:             result.x = v.x*scale;
	.loc 5 494 22
	movss	%xmm0, -20(%rbp)	 # _8, result.x
 # c:\users\pluto\scoop\apps\gcc\current\include\c++\11.2.0\raylib\raymath.h:495:             result.y = v.y*scale;
	.loc 5 495 26
	movss	20(%rbp), %xmm0	 # v.y, _9
 # c:\users\pluto\scoop\apps\gcc\current\include\c++\11.2.0\raylib\raymath.h:495:             result.y = v.y*scale;
	.loc 5 495 27
	mulss	-12(%rbp), %xmm0	 # scale, _10
 # c:\users\pluto\scoop\apps\gcc\current\include\c++\11.2.0\raylib\raymath.h:495:             result.y = v.y*scale;
	.loc 5 495 22
	movss	%xmm0, -16(%rbp)	 # _10, result.y
.LBE23:
	jmp	.L82	 #
.L91:
.LBB24:
.LBB25:
 # c:\users\pluto\scoop\apps\gcc\current\include\c++\11.2.0\raylib\raymath.h:497:         else if (length > max)
	.loc 5 497 14
	movss	-4(%rbp), %xmm0	 # length, tmp106
	comiss	32(%rbp), %xmm0	 # max, tmp106
	jbe	.L82	 #,
.LBB26:
 # c:\users\pluto\scoop\apps\gcc\current\include\c++\11.2.0\raylib\raymath.h:499:             float scale = max/length;
	.loc 5 499 19
	movss	32(%rbp), %xmm0	 # max, tmp108
	divss	-4(%rbp), %xmm0	 # length, tmp107
	movss	%xmm0, -8(%rbp)	 # tmp107, scale
 # c:\users\pluto\scoop\apps\gcc\current\include\c++\11.2.0\raylib\raymath.h:500:             result.x = v.x*scale;
	.loc 5 500 26
	movss	16(%rbp), %xmm0	 # v.x, _11
 # c:\users\pluto\scoop\apps\gcc\current\include\c++\11.2.0\raylib\raymath.h:500:             result.x = v.x*scale;
	.loc 5 500 27
	mulss	-8(%rbp), %xmm0	 # scale, _12
 # c:\users\pluto\scoop\apps\gcc\current\include\c++\11.2.0\raylib\raymath.h:500:             result.x = v.x*scale;
	.loc 5 500 22
	movss	%xmm0, -20(%rbp)	 # _12, result.x
 # c:\users\pluto\scoop\apps\gcc\current\include\c++\11.2.0\raylib\raymath.h:501:             result.y = v.y*scale;
	.loc 5 501 26
	movss	20(%rbp), %xmm0	 # v.y, _13
 # c:\users\pluto\scoop\apps\gcc\current\include\c++\11.2.0\raylib\raymath.h:501:             result.y = v.y*scale;
	.loc 5 501 27
	mulss	-8(%rbp), %xmm0	 # scale, _14
 # c:\users\pluto\scoop\apps\gcc\current\include\c++\11.2.0\raylib\raymath.h:501:             result.y = v.y*scale;
	.loc 5 501 22
	movss	%xmm0, -16(%rbp)	 # _14, result.y
.L82:
.LBE26:
.LBE25:
.LBE24:
.LBE22:
.LBE21:
.LBE20:
 # c:\users\pluto\scoop\apps\gcc\current\include\c++\11.2.0\raylib\raymath.h:505:     return result;
	.loc 5 505 12
	movq	-20(%rbp), %rax	 # result, D.127261
 # c:\users\pluto\scoop\apps\gcc\current\include\c++\11.2.0\raylib\raymath.h:506: }
	.loc 5 506 1
	addq	$64, %rsp	 #,
	popq	%rbp	 #
.LCFI118:
	ret	
.LFE1164:
	.seh_endproc
	.section	.text$_Z13Vector2Equals7Vector2S_,"x"
	.linkonce discard
	.globl	_Z13Vector2Equals7Vector2S_
	.def	_Z13Vector2Equals7Vector2S_;	.scl	2;	.type	32;	.endef
	.seh_proc	_Z13Vector2Equals7Vector2S_
_Z13Vector2Equals7Vector2S_:
.LFB1165:
	.loc 5 510 1
	pushq	%rbp	 #
	.seh_pushreg	%rbp
.LCFI119:
	movq	%rsp, %rbp	 #,
	.seh_setframe	%rbp, 0
.LCFI120:
	subq	$16, %rsp	 #,
	.seh_stackalloc	16
	.seh_endprologue
	movq	%rcx, 16(%rbp)	 # p, p
	movq	%rdx, 24(%rbp)	 # q, q
 # c:\users\pluto\scoop\apps\gcc\current\include\c++\11.2.0\raylib\raymath.h:511:     int result = ((fabsf(p.x - q.x)) <= (EPSILON*fmaxf(1.0f, fmaxf(fabsf(p.x), fabsf(q.x))))) &&
	.loc 5 511 28
	movss	16(%rbp), %xmm0	 # p.x, _1
 # c:\users\pluto\scoop\apps\gcc\current\include\c++\11.2.0\raylib\raymath.h:511:     int result = ((fabsf(p.x - q.x)) <= (EPSILON*fmaxf(1.0f, fmaxf(fabsf(p.x), fabsf(q.x))))) &&
	.loc 5 511 34
	movss	24(%rbp), %xmm1	 # q.x, _2
 # c:\users\pluto\scoop\apps\gcc\current\include\c++\11.2.0\raylib\raymath.h:511:     int result = ((fabsf(p.x - q.x)) <= (EPSILON*fmaxf(1.0f, fmaxf(fabsf(p.x), fabsf(q.x))))) &&
	.loc 5 511 30
	subss	%xmm1, %xmm0	 # _2, _3
 # c:\users\pluto\scoop\apps\gcc\current\include\c++\11.2.0\raylib\raymath.h:511:     int result = ((fabsf(p.x - q.x)) <= (EPSILON*fmaxf(1.0f, fmaxf(fabsf(p.x), fabsf(q.x))))) &&
	.loc 5 511 25
	movss	.LC7(%rip), %xmm1	 #, tmp107
	andps	%xmm0, %xmm1	 # _3, _4
 # c:\users\pluto\scoop\apps\gcc\current\include\c++\11.2.0\raylib\raymath.h:511:     int result = ((fabsf(p.x - q.x)) <= (EPSILON*fmaxf(1.0f, fmaxf(fabsf(p.x), fabsf(q.x))))) &&
	.loc 5 511 88
	movss	24(%rbp), %xmm0	 # q.x, _5
 # c:\users\pluto\scoop\apps\gcc\current\include\c++\11.2.0\raylib\raymath.h:511:     int result = ((fabsf(p.x - q.x)) <= (EPSILON*fmaxf(1.0f, fmaxf(fabsf(p.x), fabsf(q.x))))) &&
	.loc 5 511 55
	movss	.LC7(%rip), %xmm2	 #, tmp108
	andps	%xmm0, %xmm2	 # _5, _6
 # c:\users\pluto\scoop\apps\gcc\current\include\c++\11.2.0\raylib\raymath.h:511:     int result = ((fabsf(p.x - q.x)) <= (EPSILON*fmaxf(1.0f, fmaxf(fabsf(p.x), fabsf(q.x))))) &&
	.loc 5 511 76
	movss	16(%rbp), %xmm0	 # p.x, _7
 # c:\users\pluto\scoop\apps\gcc\current\include\c++\11.2.0\raylib\raymath.h:511:     int result = ((fabsf(p.x - q.x)) <= (EPSILON*fmaxf(1.0f, fmaxf(fabsf(p.x), fabsf(q.x))))) &&
	.loc 5 511 55
	movss	.LC7(%rip), %xmm3	 #, tmp109
	andps	%xmm3, %xmm0	 # tmp109, _8
	maxss	%xmm0, %xmm2	 # _8, _9
	movss	.LC1(%rip), %xmm0	 #, tmp110
	maxss	%xmm0, %xmm2	 # tmp110, _10
 # c:\users\pluto\scoop\apps\gcc\current\include\c++\11.2.0\raylib\raymath.h:511:     int result = ((fabsf(p.x - q.x)) <= (EPSILON*fmaxf(1.0f, fmaxf(fabsf(p.x), fabsf(q.x))))) &&
	.loc 5 511 49
	movss	.LC8(%rip), %xmm0	 #, tmp111
	mulss	%xmm2, %xmm0	 # _10, _11
 # c:\users\pluto\scoop\apps\gcc\current\include\c++\11.2.0\raylib\raymath.h:511:     int result = ((fabsf(p.x - q.x)) <= (EPSILON*fmaxf(1.0f, fmaxf(fabsf(p.x), fabsf(q.x))))) &&
	.loc 5 511 95
	comiss	%xmm1, %xmm0	 # _4, _11
	jb	.L93	 #,
 # c:\users\pluto\scoop\apps\gcc\current\include\c++\11.2.0\raylib\raymath.h:512:                   ((fabsf(p.y - q.y)) <= (EPSILON*fmaxf(1.0f, fmaxf(fabsf(p.y), fabsf(q.y)))));
	.loc 5 512 29 discriminator 1
	movss	20(%rbp), %xmm0	 # p.y, _12
 # c:\users\pluto\scoop\apps\gcc\current\include\c++\11.2.0\raylib\raymath.h:512:                   ((fabsf(p.y - q.y)) <= (EPSILON*fmaxf(1.0f, fmaxf(fabsf(p.y), fabsf(q.y)))));
	.loc 5 512 35 discriminator 1
	movss	28(%rbp), %xmm1	 # q.y, _13
 # c:\users\pluto\scoop\apps\gcc\current\include\c++\11.2.0\raylib\raymath.h:512:                   ((fabsf(p.y - q.y)) <= (EPSILON*fmaxf(1.0f, fmaxf(fabsf(p.y), fabsf(q.y)))));
	.loc 5 512 31 discriminator 1
	subss	%xmm1, %xmm0	 # _13, _14
 # c:\users\pluto\scoop\apps\gcc\current\include\c++\11.2.0\raylib\raymath.h:512:                   ((fabsf(p.y - q.y)) <= (EPSILON*fmaxf(1.0f, fmaxf(fabsf(p.y), fabsf(q.y)))));
	.loc 5 512 26 discriminator 1
	movss	.LC7(%rip), %xmm1	 #, tmp112
	andps	%xmm0, %xmm1	 # _14, _15
 # c:\users\pluto\scoop\apps\gcc\current\include\c++\11.2.0\raylib\raymath.h:512:                   ((fabsf(p.y - q.y)) <= (EPSILON*fmaxf(1.0f, fmaxf(fabsf(p.y), fabsf(q.y)))));
	.loc 5 512 89 discriminator 1
	movss	28(%rbp), %xmm0	 # q.y, _16
 # c:\users\pluto\scoop\apps\gcc\current\include\c++\11.2.0\raylib\raymath.h:512:                   ((fabsf(p.y - q.y)) <= (EPSILON*fmaxf(1.0f, fmaxf(fabsf(p.y), fabsf(q.y)))));
	.loc 5 512 56 discriminator 1
	movss	.LC7(%rip), %xmm2	 #, tmp113
	andps	%xmm0, %xmm2	 # _16, _17
 # c:\users\pluto\scoop\apps\gcc\current\include\c++\11.2.0\raylib\raymath.h:512:                   ((fabsf(p.y - q.y)) <= (EPSILON*fmaxf(1.0f, fmaxf(fabsf(p.y), fabsf(q.y)))));
	.loc 5 512 77 discriminator 1
	movss	20(%rbp), %xmm0	 # p.y, _18
 # c:\users\pluto\scoop\apps\gcc\current\include\c++\11.2.0\raylib\raymath.h:512:                   ((fabsf(p.y - q.y)) <= (EPSILON*fmaxf(1.0f, fmaxf(fabsf(p.y), fabsf(q.y)))));
	.loc 5 512 56 discriminator 1
	movss	.LC7(%rip), %xmm3	 #, tmp114
	andps	%xmm3, %xmm0	 # tmp114, _19
	maxss	%xmm0, %xmm2	 # _19, _20
	movss	.LC1(%rip), %xmm0	 #, tmp115
	maxss	%xmm0, %xmm2	 # tmp115, _21
 # c:\users\pluto\scoop\apps\gcc\current\include\c++\11.2.0\raylib\raymath.h:512:                   ((fabsf(p.y - q.y)) <= (EPSILON*fmaxf(1.0f, fmaxf(fabsf(p.y), fabsf(q.y)))));
	.loc 5 512 50 discriminator 1
	movss	.LC8(%rip), %xmm0	 #, tmp116
	mulss	%xmm2, %xmm0	 # _21, _22
 # c:\users\pluto\scoop\apps\gcc\current\include\c++\11.2.0\raylib\raymath.h:511:     int result = ((fabsf(p.x - q.x)) <= (EPSILON*fmaxf(1.0f, fmaxf(fabsf(p.x), fabsf(q.x))))) &&
	.loc 5 511 95 discriminator 1
	comiss	%xmm1, %xmm0	 # _15, _22
	jb	.L93	 #,
 # c:\users\pluto\scoop\apps\gcc\current\include\c++\11.2.0\raylib\raymath.h:511:     int result = ((fabsf(p.x - q.x)) <= (EPSILON*fmaxf(1.0f, fmaxf(fabsf(p.x), fabsf(q.x))))) &&
	.loc 5 511 95 is_stmt 0 discriminator 3
	movl	$1, %eax	 #, iftmp.2_23
	jmp	.L96	 #
.L93:
 # c:\users\pluto\scoop\apps\gcc\current\include\c++\11.2.0\raylib\raymath.h:511:     int result = ((fabsf(p.x - q.x)) <= (EPSILON*fmaxf(1.0f, fmaxf(fabsf(p.x), fabsf(q.x))))) &&
	.loc 5 511 95 discriminator 4
	movl	$0, %eax	 #, iftmp.2_23
.L96:
 # c:\users\pluto\scoop\apps\gcc\current\include\c++\11.2.0\raylib\raymath.h:511:     int result = ((fabsf(p.x - q.x)) <= (EPSILON*fmaxf(1.0f, fmaxf(fabsf(p.x), fabsf(q.x))))) &&
	.loc 5 511 9 is_stmt 1 discriminator 6
	movzbl	%al, %eax	 # iftmp.2_23, tmp117
	movl	%eax, -4(%rbp)	 # tmp117, result
 # c:\users\pluto\scoop\apps\gcc\current\include\c++\11.2.0\raylib\raymath.h:514:     return result;
	.loc 5 514 12 discriminator 6
	movl	-4(%rbp), %eax	 # result, _28
 # c:\users\pluto\scoop\apps\gcc\current\include\c++\11.2.0\raylib\raymath.h:515: }
	.loc 5 515 1 discriminator 6
	addq	$16, %rsp	 #,
	popq	%rbp	 #
.LCFI121:
	ret	
.LFE1165:
	.seh_endproc
	.text
	.globl	_Zng7Vector2
	.def	_Zng7Vector2;	.scl	2;	.type	32;	.endef
	.seh_proc	_Zng7Vector2
_Zng7Vector2:
.LFB1245:
	.loc 5 2141 33
	pushq	%rbp	 #
	.seh_pushreg	%rbp
.LCFI122:
	movq	%rsp, %rbp	 #,
	.seh_setframe	%rbp, 0
.LCFI123:
	.seh_endprologue
	movq	%rcx, 16(%rbp)	 # vec, vec
 # c:\users\pluto\scoop\apps\gcc\current\include\c++\11.2.0\raylib\raymath.h:2142:     return {-vec.x, -vec.y};
	.loc 5 2142 18
	movss	16(%rbp), %xmm0	 # vec.x, _1
 # c:\users\pluto\scoop\apps\gcc\current\include\c++\11.2.0\raylib\raymath.h:2142:     return {-vec.x, -vec.y};
	.loc 5 2142 13
	movss	.LC9(%rip), %xmm1	 #, tmp88
	xorps	%xmm1, %xmm0	 # tmp88, _2
 # c:\users\pluto\scoop\apps\gcc\current\include\c++\11.2.0\raylib\raymath.h:2142:     return {-vec.x, -vec.y};
	.loc 5 2142 27
	movd	%xmm0, %ecx	 # tmp89, tmp90
	movabsq	$-4294967296, %rdx	 #, tmp92
	andq	%rdx, %rax	 # tmp92, tmp91
	orq	%rcx, %rax	 # tmp90, tmp93
 # c:\users\pluto\scoop\apps\gcc\current\include\c++\11.2.0\raylib\raymath.h:2142:     return {-vec.x, -vec.y};
	.loc 5 2142 26
	movss	20(%rbp), %xmm0	 # vec.y, _3
 # c:\users\pluto\scoop\apps\gcc\current\include\c++\11.2.0\raylib\raymath.h:2142:     return {-vec.x, -vec.y};
	.loc 5 2142 21
	movss	.LC9(%rip), %xmm1	 #, tmp94
	xorps	%xmm1, %xmm0	 # tmp94, _4
 # c:\users\pluto\scoop\apps\gcc\current\include\c++\11.2.0\raylib\raymath.h:2142:     return {-vec.x, -vec.y};
	.loc 5 2142 27
	movd	%xmm0, %edx	 # tmp95, tmp96
	salq	$32, %rdx	 #, tmp97
	movl	%eax, %eax	 # D.127163, tmp98
	orq	%rdx, %rax	 # tmp97, tmp99
 # c:\users\pluto\scoop\apps\gcc\current\include\c++\11.2.0\raylib\raymath.h:2143: }
	.loc 5 2143 1
	popq	%rbp	 #
.LCFI124:
	ret	
.LFE1245:
	.seh_endproc
	.globl	_Zpl7Vector2S_
	.def	_Zpl7Vector2S_;	.scl	2;	.type	32;	.endef
	.seh_proc	_Zpl7Vector2S_
_Zpl7Vector2S_:
.LFB1246:
	.loc 5 2145 1
	pushq	%rbp	 #
	.seh_pushreg	%rbp
.LCFI125:
	movq	%rsp, %rbp	 #,
	.seh_setframe	%rbp, 0
.LCFI126:
	subq	$32, %rsp	 #,
	.seh_stackalloc	32
	.seh_endprologue
	movq	%rcx, 16(%rbp)	 # a, a
	movq	%rdx, 24(%rbp)	 # b, b
 # c:\users\pluto\scoop\apps\gcc\current\include\c++\11.2.0\raylib\raymath.h:2145: OPWRAPPER(+, Vector2, Vector2, Vector2, Vector2Add);
	.loc 5 2145 1
	movq	24(%rbp), %rax	 # b, tmp84
	movq	%rax, %rdx	 # tmp84,
	movq	16(%rbp), %rcx	 # a,
	call	_Z10Vector2Add7Vector2S_	 #
	addq	$32, %rsp	 #,
	popq	%rbp	 #
.LCFI127:
	ret	
.LFE1246:
	.seh_endproc
	.globl	_Zmi7Vector2S_
	.def	_Zmi7Vector2S_;	.scl	2;	.type	32;	.endef
	.seh_proc	_Zmi7Vector2S_
_Zmi7Vector2S_:
.LFB1247:
	.loc 5 2146 1
	pushq	%rbp	 #
	.seh_pushreg	%rbp
.LCFI128:
	movq	%rsp, %rbp	 #,
	.seh_setframe	%rbp, 0
.LCFI129:
	subq	$32, %rsp	 #,
	.seh_stackalloc	32
	.seh_endprologue
	movq	%rcx, 16(%rbp)	 # a, a
	movq	%rdx, 24(%rbp)	 # b, b
 # c:\users\pluto\scoop\apps\gcc\current\include\c++\11.2.0\raylib\raymath.h:2146: OPWRAPPER(-, Vector2, Vector2, Vector2, Vector2Subtract);
	.loc 5 2146 1
	movq	24(%rbp), %rax	 # b, tmp84
	movq	%rax, %rdx	 # tmp84,
	movq	16(%rbp), %rcx	 # a,
	call	_Z15Vector2Subtract7Vector2S_	 #
	addq	$32, %rsp	 #,
	popq	%rbp	 #
.LCFI130:
	ret	
.LFE1247:
	.seh_endproc
	.globl	_Zml7Vector2S_
	.def	_Zml7Vector2S_;	.scl	2;	.type	32;	.endef
	.seh_proc	_Zml7Vector2S_
_Zml7Vector2S_:
.LFB1248:
	.loc 5 2147 1
	pushq	%rbp	 #
	.seh_pushreg	%rbp
.LCFI131:
	movq	%rsp, %rbp	 #,
	.seh_setframe	%rbp, 0
.LCFI132:
	subq	$32, %rsp	 #,
	.seh_stackalloc	32
	.seh_endprologue
	movq	%rcx, 16(%rbp)	 # a, a
	movq	%rdx, 24(%rbp)	 # b, b
 # c:\users\pluto\scoop\apps\gcc\current\include\c++\11.2.0\raylib\raymath.h:2147: OPWRAPPER(*, Vector2, Vector2, Vector2, Vector2Multiply);
	.loc 5 2147 1
	movq	24(%rbp), %rax	 # b, tmp84
	movq	%rax, %rdx	 # tmp84,
	movq	16(%rbp), %rcx	 # a,
	call	_Z15Vector2Multiply7Vector2S_	 #
	addq	$32, %rsp	 #,
	popq	%rbp	 #
.LCFI133:
	ret	
.LFE1248:
	.seh_endproc
	.globl	_Zdv7Vector2S_
	.def	_Zdv7Vector2S_;	.scl	2;	.type	32;	.endef
	.seh_proc	_Zdv7Vector2S_
_Zdv7Vector2S_:
.LFB1249:
	.loc 5 2148 1
	pushq	%rbp	 #
	.seh_pushreg	%rbp
.LCFI134:
	movq	%rsp, %rbp	 #,
	.seh_setframe	%rbp, 0
.LCFI135:
	subq	$32, %rsp	 #,
	.seh_stackalloc	32
	.seh_endprologue
	movq	%rcx, 16(%rbp)	 # a, a
	movq	%rdx, 24(%rbp)	 # b, b
 # c:\users\pluto\scoop\apps\gcc\current\include\c++\11.2.0\raylib\raymath.h:2148: OPWRAPPER(/, Vector2, Vector2, Vector2, Vector2Divide);
	.loc 5 2148 1
	movq	24(%rbp), %rax	 # b, tmp84
	movq	%rax, %rdx	 # tmp84,
	movq	16(%rbp), %rcx	 # a,
	call	_Z13Vector2Divide7Vector2S_	 #
	addq	$32, %rsp	 #,
	popq	%rbp	 #
.LCFI136:
	ret	
.LFE1249:
	.seh_endproc
	.globl	_Zpl7Vector2f
	.def	_Zpl7Vector2f;	.scl	2;	.type	32;	.endef
	.seh_proc	_Zpl7Vector2f
_Zpl7Vector2f:
.LFB1250:
	.loc 5 2150 1
	pushq	%rbp	 #
	.seh_pushreg	%rbp
.LCFI137:
	movq	%rsp, %rbp	 #,
	.seh_setframe	%rbp, 0
.LCFI138:
	subq	$32, %rsp	 #,
	.seh_stackalloc	32
	.seh_endprologue
	movq	%rcx, 16(%rbp)	 # a, a
	movss	%xmm1, 24(%rbp)	 # b, b
 # c:\users\pluto\scoop\apps\gcc\current\include\c++\11.2.0\raylib\raymath.h:2150: OPWRAPPER(+, Vector2, Vector2, float, Vector2AddValue);
	.loc 5 2150 1
	movss	24(%rbp), %xmm0	 # b, tmp84
	movaps	%xmm0, %xmm1	 # tmp84,
	movq	16(%rbp), %rcx	 # a,
	call	_Z15Vector2AddValue7Vector2f	 #
	addq	$32, %rsp	 #,
	popq	%rbp	 #
.LCFI139:
	ret	
.LFE1250:
	.seh_endproc
	.globl	_Zmi7Vector2f
	.def	_Zmi7Vector2f;	.scl	2;	.type	32;	.endef
	.seh_proc	_Zmi7Vector2f
_Zmi7Vector2f:
.LFB1251:
	.loc 5 2151 1
	pushq	%rbp	 #
	.seh_pushreg	%rbp
.LCFI140:
	movq	%rsp, %rbp	 #,
	.seh_setframe	%rbp, 0
.LCFI141:
	subq	$32, %rsp	 #,
	.seh_stackalloc	32
	.seh_endprologue
	movq	%rcx, 16(%rbp)	 # a, a
	movss	%xmm1, 24(%rbp)	 # b, b
 # c:\users\pluto\scoop\apps\gcc\current\include\c++\11.2.0\raylib\raymath.h:2151: OPWRAPPER(-, Vector2, Vector2, float, Vector2SubtractValue);
	.loc 5 2151 1
	movss	24(%rbp), %xmm0	 # b, tmp84
	movaps	%xmm0, %xmm1	 # tmp84,
	movq	16(%rbp), %rcx	 # a,
	call	_Z20Vector2SubtractValue7Vector2f	 #
	addq	$32, %rsp	 #,
	popq	%rbp	 #
.LCFI142:
	ret	
.LFE1251:
	.seh_endproc
	.globl	_Zml7Vector2f
	.def	_Zml7Vector2f;	.scl	2;	.type	32;	.endef
	.seh_proc	_Zml7Vector2f
_Zml7Vector2f:
.LFB1252:
	.loc 5 2152 1
	pushq	%rbp	 #
	.seh_pushreg	%rbp
.LCFI143:
	movq	%rsp, %rbp	 #,
	.seh_setframe	%rbp, 0
.LCFI144:
	subq	$32, %rsp	 #,
	.seh_stackalloc	32
	.seh_endprologue
	movq	%rcx, 16(%rbp)	 # a, a
	movss	%xmm1, 24(%rbp)	 # b, b
 # c:\users\pluto\scoop\apps\gcc\current\include\c++\11.2.0\raylib\raymath.h:2152: OPWRAPPER(*, Vector2, Vector2, float, Vector2Scale);
	.loc 5 2152 1
	movss	24(%rbp), %xmm0	 # b, tmp84
	movaps	%xmm0, %xmm1	 # tmp84,
	movq	16(%rbp), %rcx	 # a,
	call	_Z12Vector2Scale7Vector2f	 #
	addq	$32, %rsp	 #,
	popq	%rbp	 #
.LCFI145:
	ret	
.LFE1252:
	.seh_endproc
	.globl	_Zeq7Vector2S_
	.def	_Zeq7Vector2S_;	.scl	2;	.type	32;	.endef
	.seh_proc	_Zeq7Vector2S_
_Zeq7Vector2S_:
.LFB1253:
	.loc 5 2154 1
	pushq	%rbp	 #
	.seh_pushreg	%rbp
.LCFI146:
	movq	%rsp, %rbp	 #,
	.seh_setframe	%rbp, 0
.LCFI147:
	subq	$32, %rsp	 #,
	.seh_stackalloc	32
	.seh_endprologue
	movq	%rcx, 16(%rbp)	 # a, a
	movq	%rdx, 24(%rbp)	 # b, b
 # c:\users\pluto\scoop\apps\gcc\current\include\c++\11.2.0\raylib\raymath.h:2154: OPWRAPPER(==, bool, Vector2, Vector2, Vector2Equals);
	.loc 5 2154 1
	movq	24(%rbp), %rax	 # b, tmp85
	movq	%rax, %rdx	 # tmp85,
	movq	16(%rbp), %rcx	 # a,
	call	_Z13Vector2Equals7Vector2S_	 #
	testl	%eax, %eax	 # _1
	setne	%al	 #, _4
	addq	$32, %rsp	 #,
	popq	%rbp	 #
.LCFI148:
	ret	
.LFE1253:
	.seh_endproc
	.align 2
	.globl	_ZN7Vector24zeroEv
	.def	_ZN7Vector24zeroEv;	.scl	2;	.type	32;	.endef
	.seh_proc	_ZN7Vector24zeroEv
_ZN7Vector24zeroEv:
.LFB1254:
	.loc 5 2157 25
	pushq	%rbp	 #
	.seh_pushreg	%rbp
.LCFI149:
	movq	%rsp, %rbp	 #,
	.seh_setframe	%rbp, 0
.LCFI150:
	subq	$32, %rsp	 #,
	.seh_stackalloc	32
	.seh_endprologue
 # c:\users\pluto\scoop\apps\gcc\current\include\c++\11.2.0\raylib\raymath.h:2158:     return Vector2Zero();
	.loc 5 2158 23
	call	_Z11Vector2Zerov	 #
 # c:\users\pluto\scoop\apps\gcc\current\include\c++\11.2.0\raylib\raymath.h:2159: }
	.loc 5 2159 1
	addq	$32, %rsp	 #,
	popq	%rbp	 #
.LCFI151:
	ret	
.LFE1254:
	.seh_endproc
	.align 2
	.globl	_ZN7Vector23oneEv
	.def	_ZN7Vector23oneEv;	.scl	2;	.type	32;	.endef
	.seh_proc	_ZN7Vector23oneEv
_ZN7Vector23oneEv:
.LFB1255:
	.loc 5 2160 24
	pushq	%rbp	 #
	.seh_pushreg	%rbp
.LCFI152:
	movq	%rsp, %rbp	 #,
	.seh_setframe	%rbp, 0
.LCFI153:
	subq	$32, %rsp	 #,
	.seh_stackalloc	32
	.seh_endprologue
 # c:\users\pluto\scoop\apps\gcc\current\include\c++\11.2.0\raylib\raymath.h:2161:     return Vector2One();
	.loc 5 2161 22
	call	_Z10Vector2Onev	 #
 # c:\users\pluto\scoop\apps\gcc\current\include\c++\11.2.0\raylib\raymath.h:2162: }
	.loc 5 2162 1
	addq	$32, %rsp	 #,
	popq	%rbp	 #
.LCFI154:
	ret	
.LFE1255:
	.seh_endproc
	.align 2
	.globl	_ZNK7Vector24magnEv
	.def	_ZNK7Vector24magnEv;	.scl	2;	.type	32;	.endef
	.seh_proc	_ZNK7Vector24magnEv
_ZNK7Vector24magnEv:
.LFB1256:
	.loc 5 2164 29
	pushq	%rbp	 #
	.seh_pushreg	%rbp
.LCFI155:
	movq	%rsp, %rbp	 #,
	.seh_setframe	%rbp, 0
.LCFI156:
	subq	$32, %rsp	 #,
	.seh_stackalloc	32
	.seh_endprologue
	movq	%rcx, 16(%rbp)	 # this, this
 # c:\users\pluto\scoop\apps\gcc\current\include\c++\11.2.0\raylib\raymath.h:2165:     return Vector2Length(*this);
	.loc 5 2165 25
	movq	16(%rbp), %rax	 # this, tmp84
	movq	(%rax), %rcx	 # *this_2(D),
	call	_Z13Vector2Length7Vector2	 #
 # c:\users\pluto\scoop\apps\gcc\current\include\c++\11.2.0\raylib\raymath.h:2166: }
	.loc 5 2166 1
	addq	$32, %rsp	 #,
	popq	%rbp	 #
.LCFI157:
	ret	
.LFE1256:
	.seh_endproc
	.align 2
	.globl	_ZNK7Vector27magnSqrEv
	.def	_ZNK7Vector27magnSqrEv;	.scl	2;	.type	32;	.endef
	.seh_proc	_ZNK7Vector27magnSqrEv
_ZNK7Vector27magnSqrEv:
.LFB1257:
	.loc 5 2167 32
	pushq	%rbp	 #
	.seh_pushreg	%rbp
.LCFI158:
	movq	%rsp, %rbp	 #,
	.seh_setframe	%rbp, 0
.LCFI159:
	subq	$32, %rsp	 #,
	.seh_stackalloc	32
	.seh_endprologue
	movq	%rcx, 16(%rbp)	 # this, this
 # c:\users\pluto\scoop\apps\gcc\current\include\c++\11.2.0\raylib\raymath.h:2168:     return Vector2LengthSqr(*this);
	.loc 5 2168 28
	movq	16(%rbp), %rax	 # this, tmp84
	movq	(%rax), %rcx	 # *this_2(D),
	call	_Z16Vector2LengthSqr7Vector2	 #
 # c:\users\pluto\scoop\apps\gcc\current\include\c++\11.2.0\raylib\raymath.h:2169: }
	.loc 5 2169 1
	addq	$32, %rsp	 #,
	popq	%rbp	 #
.LCFI160:
	ret	
.LFE1257:
	.seh_endproc
	.align 2
	.globl	_ZNK7Vector25angleEv
	.def	_ZNK7Vector25angleEv;	.scl	2;	.type	32;	.endef
	.seh_proc	_ZNK7Vector25angleEv
_ZNK7Vector25angleEv:
.LFB1258:
	.loc 5 2170 30
	pushq	%rbp	 #
	.seh_pushreg	%rbp
.LCFI161:
	movq	%rsp, %rbp	 #,
	.seh_setframe	%rbp, 0
.LCFI162:
	subq	$48, %rsp	 #,
	.seh_stackalloc	48
	.seh_endprologue
	movq	%rcx, 16(%rbp)	 # this, this
 # c:\users\pluto\scoop\apps\gcc\current\include\c++\11.2.0\raylib\raymath.h:2171:     const float m = magn();
	.loc 5 2171 25
	movq	16(%rbp), %rcx	 # this,
	call	_ZNK7Vector24magnEv	 #
	movd	%xmm0, %eax	 #, tmp89
	movl	%eax, -4(%rbp)	 # tmp89, m
 # c:\users\pluto\scoop\apps\gcc\current\include\c++\11.2.0\raylib\raymath.h:2172:     const float a = atan2f(y/m, x/m)*RAD2DEG;
	.loc 5 2172 33
	movq	16(%rbp), %rax	 # this, tmp90
	movss	(%rax), %xmm0	 # this_7(D)->x, _1
 # c:\users\pluto\scoop\apps\gcc\current\include\c++\11.2.0\raylib\raymath.h:2172:     const float a = atan2f(y/m, x/m)*RAD2DEG;
	.loc 5 2172 27
	movaps	%xmm0, %xmm1	 # _1, _1
	divss	-4(%rbp), %xmm1	 # m, _1
 # c:\users\pluto\scoop\apps\gcc\current\include\c++\11.2.0\raylib\raymath.h:2172:     const float a = atan2f(y/m, x/m)*RAD2DEG;
	.loc 5 2172 28
	movq	16(%rbp), %rax	 # this, tmp91
	movss	4(%rax), %xmm0	 # this_7(D)->y, _3
 # c:\users\pluto\scoop\apps\gcc\current\include\c++\11.2.0\raylib\raymath.h:2172:     const float a = atan2f(y/m, x/m)*RAD2DEG;
	.loc 5 2172 27
	divss	-4(%rbp), %xmm0	 # m, _3
	movd	%xmm0, %eax	 # _3, _4
	movd	%eax, %xmm0	 # _4,
	call	atan2f	 #
 # c:\users\pluto\scoop\apps\gcc\current\include\c++\11.2.0\raylib\raymath.h:2172:     const float a = atan2f(y/m, x/m)*RAD2DEG;
	.loc 5 2172 17
	movss	.LC10(%rip), %xmm1	 #, tmp93
	mulss	%xmm1, %xmm0	 # tmp93, tmp92
	movss	%xmm0, -8(%rbp)	 # tmp92, a
 # c:\users\pluto\scoop\apps\gcc\current\include\c++\11.2.0\raylib\raymath.h:2180:     return a;
	.loc 5 2180 12
	movss	-8(%rbp), %xmm0	 # a, _11
 # c:\users\pluto\scoop\apps\gcc\current\include\c++\11.2.0\raylib\raymath.h:2181: }
	.loc 5 2181 1
	addq	$48, %rsp	 #,
	popq	%rbp	 #
.LCFI163:
	ret	
.LFE1258:
	.seh_endproc
	.align 2
	.globl	_ZNK7Vector24distES_
	.def	_ZNK7Vector24distES_;	.scl	2;	.type	32;	.endef
	.seh_proc	_ZNK7Vector24distES_
_ZNK7Vector24distES_:
.LFB1259:
	.loc 5 2182 38
	pushq	%rbp	 #
	.seh_pushreg	%rbp
.LCFI164:
	movq	%rsp, %rbp	 #,
	.seh_setframe	%rbp, 0
.LCFI165:
	subq	$32, %rsp	 #,
	.seh_stackalloc	32
	.seh_endprologue
	movq	%rcx, 16(%rbp)	 # this, this
	movq	%rdx, 24(%rbp)	 # v, v
 # c:\users\pluto\scoop\apps\gcc\current\include\c++\11.2.0\raylib\raymath.h:2183:     return Vector2Distance(*this, v);
	.loc 5 2183 27
	movq	24(%rbp), %rax	 # v, tmp84
	movq	16(%rbp), %rcx	 # this, tmp85
	movq	%rax, %rdx	 # tmp84,
	movq	(%rcx), %rcx	 # *this_2(D),
	call	_Z15Vector2Distance7Vector2S_	 #
 # c:\users\pluto\scoop\apps\gcc\current\include\c++\11.2.0\raylib\raymath.h:2184: }
	.loc 5 2184 1
	addq	$32, %rsp	 #,
	popq	%rbp	 #
.LCFI166:
	ret	
.LFE1259:
	.seh_endproc
	.align 2
	.globl	_ZNK7Vector27distSqrES_
	.def	_ZNK7Vector27distSqrES_;	.scl	2;	.type	32;	.endef
	.seh_proc	_ZNK7Vector27distSqrES_
_ZNK7Vector27distSqrES_:
.LFB1260:
	.loc 5 2185 41
	pushq	%rbp	 #
	.seh_pushreg	%rbp
.LCFI167:
	movq	%rsp, %rbp	 #,
	.seh_setframe	%rbp, 0
.LCFI168:
	subq	$32, %rsp	 #,
	.seh_stackalloc	32
	.seh_endprologue
	movq	%rcx, 16(%rbp)	 # this, this
	movq	%rdx, 24(%rbp)	 # v, v
 # c:\users\pluto\scoop\apps\gcc\current\include\c++\11.2.0\raylib\raymath.h:2186:     return Vector2DistanceSqr(*this, v);
	.loc 5 2186 30
	movq	24(%rbp), %rax	 # v, tmp84
	movq	16(%rbp), %rcx	 # this, tmp85
	movq	%rax, %rdx	 # tmp84,
	movq	(%rcx), %rcx	 # *this_2(D),
	call	_Z18Vector2DistanceSqr7Vector2S_	 #
 # c:\users\pluto\scoop\apps\gcc\current\include\c++\11.2.0\raylib\raymath.h:2187: }
	.loc 5 2187 1
	addq	$32, %rsp	 #,
	popq	%rbp	 #
.LCFI169:
	ret	
.LFE1260:
	.seh_endproc
	.align 2
	.globl	_ZNK7Vector23dotES_
	.def	_ZNK7Vector23dotES_;	.scl	2;	.type	32;	.endef
	.seh_proc	_ZNK7Vector23dotES_
_ZNK7Vector23dotES_:
.LFB1261:
	.loc 5 2188 37
	pushq	%rbp	 #
	.seh_pushreg	%rbp
.LCFI170:
	movq	%rsp, %rbp	 #,
	.seh_setframe	%rbp, 0
.LCFI171:
	subq	$32, %rsp	 #,
	.seh_stackalloc	32
	.seh_endprologue
	movq	%rcx, 16(%rbp)	 # this, this
	movq	%rdx, 24(%rbp)	 # v, v
 # c:\users\pluto\scoop\apps\gcc\current\include\c++\11.2.0\raylib\raymath.h:2189:     return Vector2DotProduct(*this, v);
	.loc 5 2189 29
	movq	24(%rbp), %rax	 # v, tmp84
	movq	16(%rbp), %rcx	 # this, tmp85
	movq	%rax, %rdx	 # tmp84,
	movq	(%rcx), %rcx	 # *this_2(D),
	call	_Z17Vector2DotProduct7Vector2S_	 #
 # c:\users\pluto\scoop\apps\gcc\current\include\c++\11.2.0\raylib\raymath.h:2190: }
	.loc 5 2190 1
	addq	$32, %rsp	 #,
	popq	%rbp	 #
.LCFI172:
	ret	
.LFE1261:
	.seh_endproc
	.align 2
	.globl	_ZN7Vector27setMagnEf
	.def	_ZN7Vector27setMagnEf;	.scl	2;	.type	32;	.endef
	.seh_proc	_ZN7Vector27setMagnEf
_ZN7Vector27setMagnEf:
.LFB1262:
	.loc 5 2192 38
	pushq	%rbp	 #
	.seh_pushreg	%rbp
.LCFI173:
	movq	%rsp, %rbp	 #,
	.seh_setframe	%rbp, 0
.LCFI174:
	subq	$32, %rsp	 #,
	.seh_stackalloc	32
	.seh_endprologue
	movq	%rcx, 16(%rbp)	 # this, this
	movss	%xmm1, 24(%rbp)	 # val, val
 # c:\users\pluto\scoop\apps\gcc\current\include\c++\11.2.0\raylib\raymath.h:2193:     return *this = Vector2Normalize(*this) * val;
	.loc 5 2193 46
	movq	16(%rbp), %rax	 # this, tmp85
	movq	(%rax), %rcx	 # MEM[(const struct Vector2 &)this_2(D)],
	call	_Z16Vector2Normalize7Vector2	 #
	movss	24(%rbp), %xmm0	 # val, tmp86
	movaps	%xmm0, %xmm1	 # tmp86,
	movq	%rax, %rcx	 # D.127242,
	call	_Zml7Vector2f	 #
	movq	%rax, %rdx	 # tmp87, tmp88
	movq	16(%rbp), %rax	 # this, tmp89
	movq	%rdx, (%rax)	 # tmp88, *this_2(D)
	movq	16(%rbp), %rax	 # this, _6
 # c:\users\pluto\scoop\apps\gcc\current\include\c++\11.2.0\raylib\raymath.h:2194: }
	.loc 5 2194 1
	addq	$32, %rsp	 #,
	popq	%rbp	 #
.LCFI175:
	ret	
.LFE1262:
	.seh_endproc
	.align 2
	.globl	_ZN7Vector28setAngleEf
	.def	_ZN7Vector28setAngleEf;	.scl	2;	.type	32;	.endef
	.seh_proc	_ZN7Vector28setAngleEf
_ZN7Vector28setAngleEf:
.LFB1263:
	.loc 5 2195 39
	pushq	%rbp	 #
	.seh_pushreg	%rbp
.LCFI176:
	subq	$64, %rsp	 #,
	.seh_stackalloc	64
.LCFI177:
	leaq	48(%rsp), %rbp	 #,
	.seh_setframe	%rbp, 48
.LCFI178:
	movaps	%xmm6, 0(%rbp)	 #,
	.seh_savexmm	%xmm6, 48
.LCFI179:
	.seh_endprologue
	movq	%rcx, 32(%rbp)	 # this, this
	movss	%xmm1, 40(%rbp)	 # val, val
 # c:\users\pluto\scoop\apps\gcc\current\include\c++\11.2.0\raylib\raymath.h:2196:     const float m = this->magn();
	.loc 5 2196 31
	movq	32(%rbp), %rcx	 # this,
	call	_ZNK7Vector24magnEv	 #
	movd	%xmm0, %eax	 #, tmp88
	movl	%eax, -4(%rbp)	 # tmp88, m
 # c:\users\pluto\scoop\apps\gcc\current\include\c++\11.2.0\raylib\raymath.h:2197:     this->x = m*cosf(val);
	.loc 5 2197 21
	movl	40(%rbp), %eax	 # val, tmp89
	movd	%eax, %xmm0	 # tmp89,
	call	cosf	 #
	movd	%xmm0, %eax	 #, _1
 # c:\users\pluto\scoop\apps\gcc\current\include\c++\11.2.0\raylib\raymath.h:2197:     this->x = m*cosf(val);
	.loc 5 2197 16
	movd	%eax, %xmm0	 # _1, _1
	mulss	-4(%rbp), %xmm0	 # m, _1
 # c:\users\pluto\scoop\apps\gcc\current\include\c++\11.2.0\raylib\raymath.h:2197:     this->x = m*cosf(val);
	.loc 5 2197 13
	movq	32(%rbp), %rax	 # this, tmp90
	movss	%xmm0, (%rax)	 # _2, this_7(D)->x
 # c:\users\pluto\scoop\apps\gcc\current\include\c++\11.2.0\raylib\raymath.h:2198:     this->y = -m*sinf(val);
	.loc 5 2198 15
	movss	-4(%rbp), %xmm0	 # m, tmp91
	movss	.LC9(%rip), %xmm1	 #, tmp92
	movaps	%xmm0, %xmm6	 # tmp91, tmp91
	xorps	%xmm1, %xmm6	 # tmp92, tmp91
 # c:\users\pluto\scoop\apps\gcc\current\include\c++\11.2.0\raylib\raymath.h:2198:     this->y = -m*sinf(val);
	.loc 5 2198 22
	movl	40(%rbp), %eax	 # val, tmp93
	movd	%eax, %xmm0	 # tmp93,
	call	sinf	 #
 # c:\users\pluto\scoop\apps\gcc\current\include\c++\11.2.0\raylib\raymath.h:2198:     this->y = -m*sinf(val);
	.loc 5 2198 17
	mulss	%xmm6, %xmm0	 # _3, _5
 # c:\users\pluto\scoop\apps\gcc\current\include\c++\11.2.0\raylib\raymath.h:2198:     this->y = -m*sinf(val);
	.loc 5 2198 13
	movq	32(%rbp), %rax	 # this, tmp94
	movss	%xmm0, 4(%rax)	 # _5, this_7(D)->y
 # c:\users\pluto\scoop\apps\gcc\current\include\c++\11.2.0\raylib\raymath.h:2199: }
	.loc 5 2199 1
	nop	
	movaps	0(%rbp), %xmm6	 #,
	addq	$64, %rsp	 #,
.LCFI180:
	popq	%rbp	 #
.LCFI181:
	ret	
.LFE1263:
	.seh_endproc
	.align 2
	.globl	_ZN7Vector25clampEff
	.def	_ZN7Vector25clampEff;	.scl	2;	.type	32;	.endef
	.seh_proc	_ZN7Vector25clampEff
_ZN7Vector25clampEff:
.LFB1264:
	.loc 5 2200 43
	pushq	%rbp	 #
	.seh_pushreg	%rbp
.LCFI182:
	movq	%rsp, %rbp	 #,
	.seh_setframe	%rbp, 0
.LCFI183:
	subq	$32, %rsp	 #,
	.seh_stackalloc	32
	.seh_endprologue
	movq	%rcx, 16(%rbp)	 # this, this
	movss	%xmm1, 24(%rbp)	 # m, m
	movss	%xmm2, 32(%rbp)	 # M, M
 # c:\users\pluto\scoop\apps\gcc\current\include\c++\11.2.0\raylib\raymath.h:2201:     return *this = Vector2ClampValue(*this, m, M);
	.loc 5 2201 37
	movss	32(%rbp), %xmm1	 # M, tmp84
	movss	24(%rbp), %xmm0	 # m, tmp85
	movq	16(%rbp), %rax	 # this, tmp86
	movaps	%xmm1, %xmm2	 # tmp84,
	movaps	%xmm0, %xmm1	 # tmp85,
	movq	(%rax), %rcx	 # MEM[(const struct Vector2 &)this_2(D)],
	call	_Z17Vector2ClampValue7Vector2ff	 #
	movq	%rax, %rdx	 # tmp87, tmp88
	movq	16(%rbp), %rax	 # this, tmp89
	movq	%rdx, (%rax)	 # tmp88, *this_2(D)
 # c:\users\pluto\scoop\apps\gcc\current\include\c++\11.2.0\raylib\raymath.h:2201:     return *this = Vector2ClampValue(*this, m, M);
	.loc 5 2201 49
	movq	16(%rbp), %rax	 # this, _6
 # c:\users\pluto\scoop\apps\gcc\current\include\c++\11.2.0\raylib\raymath.h:2202: }
	.loc 5 2202 1
	addq	$32, %rsp	 #,
	popq	%rbp	 #
.LCFI184:
	ret	
.LFE1264:
	.seh_endproc
	.align 2
	.globl	_ZN7Vector25clampES_S_
	.def	_ZN7Vector25clampES_S_;	.scl	2;	.type	32;	.endef
	.seh_proc	_ZN7Vector25clampES_S_
_ZN7Vector25clampES_S_:
.LFB1265:
	.loc 5 2203 47
	pushq	%rbp	 #
	.seh_pushreg	%rbp
.LCFI185:
	movq	%rsp, %rbp	 #,
	.seh_setframe	%rbp, 0
.LCFI186:
	subq	$32, %rsp	 #,
	.seh_stackalloc	32
	.seh_endprologue
	movq	%rcx, 16(%rbp)	 # this, this
	movq	%rdx, 24(%rbp)	 # m, m
	movq	%r8, 32(%rbp)	 # M, M
 # c:\users\pluto\scoop\apps\gcc\current\include\c++\11.2.0\raylib\raymath.h:2204:     return *this = Vector2Clamp(*this, m, M);
	.loc 5 2204 32
	movq	32(%rbp), %rdx	 # M, tmp84
	movq	24(%rbp), %rax	 # m, tmp85
	movq	16(%rbp), %rcx	 # this, tmp86
	movq	%rdx, %r8	 # tmp84,
	movq	%rax, %rdx	 # tmp85,
	movq	(%rcx), %rcx	 # MEM[(const struct Vector2 &)this_2(D)],
	call	_Z12Vector2Clamp7Vector2S_S_	 #
	movq	%rax, %rdx	 # tmp87, tmp88
	movq	16(%rbp), %rax	 # this, tmp89
	movq	%rdx, (%rax)	 # tmp88, *this_2(D)
 # c:\users\pluto\scoop\apps\gcc\current\include\c++\11.2.0\raylib\raymath.h:2204:     return *this = Vector2Clamp(*this, m, M);
	.loc 5 2204 44
	movq	16(%rbp), %rax	 # this, _4
 # c:\users\pluto\scoop\apps\gcc\current\include\c++\11.2.0\raylib\raymath.h:2205: }
	.loc 5 2205 1
	addq	$32, %rsp	 #,
	popq	%rbp	 #
.LCFI187:
	ret	
.LFE1265:
	.seh_endproc
	.align 2
	.globl	_ZN7Vector26moveToES_f
	.def	_ZN7Vector26moveToES_f;	.scl	2;	.type	32;	.endef
	.seh_proc	_ZN7Vector26moveToES_f
_ZN7Vector26moveToES_f:
.LFB1266:
	.loc 5 2206 58
	pushq	%rbp	 #
	.seh_pushreg	%rbp
.LCFI188:
	movq	%rsp, %rbp	 #,
	.seh_setframe	%rbp, 0
.LCFI189:
	subq	$32, %rsp	 #,
	.seh_stackalloc	32
	.seh_endprologue
	movq	%rcx, 16(%rbp)	 # this, this
	movq	%rdx, 24(%rbp)	 # target, target
	movss	%xmm2, 32(%rbp)	 # max_dist, max_dist
 # c:\users\pluto\scoop\apps\gcc\current\include\c++\11.2.0\raylib\raymath.h:2207:     return *this = Vector2MoveTowards(*this, target, max_dist);
	.loc 5 2207 38
	movss	32(%rbp), %xmm0	 # max_dist, tmp84
	movq	24(%rbp), %rax	 # target, tmp85
	movq	16(%rbp), %rcx	 # this, tmp86
	movaps	%xmm0, %xmm2	 # tmp84,
	movq	%rax, %rdx	 # tmp85,
	movq	(%rcx), %rcx	 # MEM[(const struct Vector2 &)this_2(D)],
	call	_Z18Vector2MoveTowards7Vector2S_f	 #
	movq	%rax, %rdx	 # tmp87, tmp88
	movq	16(%rbp), %rax	 # this, tmp89
	movq	%rdx, (%rax)	 # tmp88, *this_2(D)
 # c:\users\pluto\scoop\apps\gcc\current\include\c++\11.2.0\raylib\raymath.h:2207:     return *this = Vector2MoveTowards(*this, target, max_dist);
	.loc 5 2207 62
	movq	16(%rbp), %rax	 # this, _5
 # c:\users\pluto\scoop\apps\gcc\current\include\c++\11.2.0\raylib\raymath.h:2208: }
	.loc 5 2208 1
	addq	$32, %rsp	 #,
	popq	%rbp	 #
.LCFI190:
	ret	
.LFE1266:
	.seh_endproc
	.align 2
	.globl	_ZN7Vector24copyEv
	.def	_ZN7Vector24copyEv;	.scl	2;	.type	32;	.endef
	.seh_proc	_ZN7Vector24copyEv
_ZN7Vector24copyEv:
.LFB1267:
	.loc 5 2209 25
	pushq	%rbp	 #
	.seh_pushreg	%rbp
.LCFI191:
	movq	%rsp, %rbp	 #,
	.seh_setframe	%rbp, 0
.LCFI192:
	.seh_endprologue
	movq	%rcx, 16(%rbp)	 # this, this
 # c:\users\pluto\scoop\apps\gcc\current\include\c++\11.2.0\raylib\raymath.h:2210:     return {this->x, this->y};
	.loc 5 2210 19
	movq	16(%rbp), %rdx	 # this, tmp86
	movss	(%rdx), %xmm0	 # this_4(D)->x, _1
 # c:\users\pluto\scoop\apps\gcc\current\include\c++\11.2.0\raylib\raymath.h:2210:     return {this->x, this->y};
	.loc 5 2210 29
	movd	%xmm0, %ecx	 # tmp87, tmp88
	movabsq	$-4294967296, %rdx	 #, tmp90
	andq	%rdx, %rax	 # tmp90, tmp89
	orq	%rcx, %rax	 # tmp88, tmp91
 # c:\users\pluto\scoop\apps\gcc\current\include\c++\11.2.0\raylib\raymath.h:2210:     return {this->x, this->y};
	.loc 5 2210 28
	movq	16(%rbp), %rdx	 # this, tmp92
	movss	4(%rdx), %xmm0	 # this_4(D)->y, _2
 # c:\users\pluto\scoop\apps\gcc\current\include\c++\11.2.0\raylib\raymath.h:2210:     return {this->x, this->y};
	.loc 5 2210 29
	movd	%xmm0, %edx	 # tmp93, tmp94
	salq	$32, %rdx	 #, tmp95
	movl	%eax, %eax	 # D.127278, tmp96
	orq	%rdx, %rax	 # tmp95, tmp97
 # c:\users\pluto\scoop\apps\gcc\current\include\c++\11.2.0\raylib\raymath.h:2211: }
	.loc 5 2211 1
	popq	%rbp	 #
.LCFI193:
	ret	
.LFE1267:
	.seh_endproc
	.section	.text$_Z6printfPKcz,"x"
	.linkonce discard
	.globl	_Z6printfPKcz
	.def	_Z6printfPKcz;	.scl	2;	.type	32;	.endef
	.seh_proc	_Z6printfPKcz
_Z6printfPKcz:
.LFB1277:
	.file 6 "c:/users/pluto/scoop/apps/gcc/current/x86_64-w64-mingw32/include/stdio.h"
	.loc 6 369 1
	pushq	%rbp	 #
	.seh_pushreg	%rbp
.LCFI194:
	pushq	%rbx	 #
	.seh_pushreg	%rbx
.LCFI195:
	subq	$56, %rsp	 #,
	.seh_stackalloc	56
.LCFI196:
	leaq	48(%rsp), %rbp	 #,
	.seh_setframe	%rbp, 48
.LCFI197:
	.seh_endprologue
	movq	%rcx, 32(%rbp)	 # __format, __format
	movq	%rdx, 40(%rbp)	 #,
	movq	%r8, 48(%rbp)	 #,
	movq	%r9, 56(%rbp)	 #,
 # c:\users\pluto\scoop\apps\gcc\current\x86_64-w64-mingw32\include\stdio.h:371:   __builtin_va_list __local_argv; __builtin_va_start( __local_argv, __format );
	.loc 6 371 53
	leaq	40(%rbp), %rax	 #, tmp86
	movq	%rax, -16(%rbp)	 # tmp86, MEM[(char * *)&__local_argv]
 # c:\users\pluto\scoop\apps\gcc\current\x86_64-w64-mingw32\include\stdio.h:372:   __retval = __mingw_vfprintf( stdout, __format, __local_argv );
	.loc 6 372 30
	movq	-16(%rbp), %rbx	 # __local_argv, __local_argv.3_1
	movl	$1, %ecx	 #,
	movq	__imp___acrt_iob_func(%rip), %rax	 #, tmp87
	call	*%rax	 # tmp87
.LVL0:
	movq	%rbx, %r8	 # __local_argv.3_1,
	movq	32(%rbp), %rdx	 # __format,
	movq	%rax, %rcx	 # _2,
	call	__mingw_vfprintf	 #
	movl	%eax, -4(%rbp)	 # tmp88, __retval
 # c:\users\pluto\scoop\apps\gcc\current\x86_64-w64-mingw32\include\stdio.h:374:   return __retval;
	.loc 6 374 10
	movl	-4(%rbp), %eax	 # __retval, _11
 # c:\users\pluto\scoop\apps\gcc\current\x86_64-w64-mingw32\include\stdio.h:375: }
	.loc 6 375 1
	addq	$56, %rsp	 #,
	popq	%rbx	 #
.LCFI198:
	popq	%rbp	 #
.LCFI199:
	ret	
.LFE1277:
	.seh_endproc
	.section .rdata,"dr"
	.align 8
.LC11:
	.ascii "\33[1;31m[FATAL]\33[0m Assertion failed in %s:%i:\12\11%s\12\0"
	.text
	.globl	_Z8__assertbPKciS0_
	.def	_Z8__assertbPKciS0_;	.scl	2;	.type	32;	.endef
	.seh_proc	_Z8__assertbPKciS0_
_Z8__assertbPKciS0_:
.LFB1321:
	.file 7 "c:/users/pluto/scoop/apps/gcc/current/include/c++/11.2.0/utils/result.hpp"
	.loc 7 53 86
	pushq	%rbp	 #
	.seh_pushreg	%rbp
.LCFI200:
	movq	%rsp, %rbp	 #,
	.seh_setframe	%rbp, 0
.LCFI201:
	subq	$32, %rsp	 #,
	.seh_stackalloc	32
	.seh_endprologue
	movl	%ecx, %eax	 # condition, tmp83
	movq	%rdx, 24(%rbp)	 # file, file
	movl	%r8d, 32(%rbp)	 # line, line
	movq	%r9, 40(%rbp)	 # condition_str, condition_str
	movb	%al, 16(%rbp)	 # tmp84, condition
 # c:\users\pluto\scoop\apps\gcc\current\include\c++\11.2.0\utils\result.hpp:54: 	if (!condition) {
	.loc 7 54 6
	movzbl	16(%rbp), %eax	 # condition, tmp85
	xorl	$1, %eax	 #, _1
 # c:\users\pluto\scoop\apps\gcc\current\include\c++\11.2.0\utils\result.hpp:54: 	if (!condition) {
	.loc 7 54 2
	testb	%al, %al	 # _1
	je	.L149	 #,
 # c:\users\pluto\scoop\apps\gcc\current\include\c++\11.2.0\utils\result.hpp:55: 		printf("\033[1;31m[FATAL]\033[0m Assertion failed in %s:%i:\n\t%s\n", file, line, condition_str);
	.loc 7 55 9
	movq	40(%rbp), %rcx	 # condition_str, tmp86
	movl	32(%rbp), %edx	 # line, tmp87
	movq	24(%rbp), %rax	 # file, tmp88
	movq	%rcx, %r9	 # tmp86,
	movl	%edx, %r8d	 # tmp87,
	movq	%rax, %rdx	 # tmp88,
	leaq	.LC11(%rip), %rax	 #, tmp89
	movq	%rax, %rcx	 # tmp89,
	call	_Z6printfPKcz	 #
 # c:\users\pluto\scoop\apps\gcc\current\include\c++\11.2.0\utils\result.hpp:56: 		exit(1);
	.loc 7 56 7
	movl	$1, %ecx	 #,
	call	exit	 #
.L149:
 # c:\users\pluto\scoop\apps\gcc\current\include\c++\11.2.0\utils\result.hpp:58: }
	.loc 7 58 1
	nop	
	addq	$32, %rsp	 #,
	popq	%rbp	 #
.LCFI202:
	ret	
.LFE1321:
	.seh_endproc
	.section .rdata,"dr"
	.align 8
.LC12:
	.ascii "\33[1;31m[FATAL]\33[0m Assertion failed in %s:%i: %s\12\11%s\12\0"
	.text
	.globl	_Z9__assertmbPKciS0_S0_
	.def	_Z9__assertmbPKciS0_S0_;	.scl	2;	.type	32;	.endef
	.seh_proc	_Z9__assertmbPKciS0_S0_
_Z9__assertmbPKciS0_S0_:
.LFB1322:
	.loc 7 62 108
	pushq	%rbp	 #
	.seh_pushreg	%rbp
.LCFI203:
	movq	%rsp, %rbp	 #,
	.seh_setframe	%rbp, 0
.LCFI204:
	subq	$48, %rsp	 #,
	.seh_stackalloc	48
	.seh_endprologue
	movl	%ecx, %eax	 # condition, tmp83
	movq	%rdx, 24(%rbp)	 # file, file
	movl	%r8d, 32(%rbp)	 # line, line
	movq	%r9, 40(%rbp)	 # condition_str, condition_str
	movb	%al, 16(%rbp)	 # tmp84, condition
 # c:\users\pluto\scoop\apps\gcc\current\include\c++\11.2.0\utils\result.hpp:63: 	if (!condition) {
	.loc 7 63 6
	movzbl	16(%rbp), %eax	 # condition, tmp85
	xorl	$1, %eax	 #, _1
 # c:\users\pluto\scoop\apps\gcc\current\include\c++\11.2.0\utils\result.hpp:63: 	if (!condition) {
	.loc 7 63 2
	testb	%al, %al	 # _1
	je	.L152	 #,
 # c:\users\pluto\scoop\apps\gcc\current\include\c++\11.2.0\utils\result.hpp:64: 		printf("\033[1;31m[FATAL]\033[0m Assertion failed in %s:%i: %s\n\t%s\n", file, line, err_msg, condition_str);
	.loc 7 64 9
	movq	48(%rbp), %r8	 # err_msg, tmp86
	movl	32(%rbp), %ecx	 # line, tmp87
	movq	24(%rbp), %rax	 # file, tmp88
	movq	40(%rbp), %rdx	 # condition_str, tmp89
	movq	%rdx, 32(%rsp)	 # tmp89,
	movq	%r8, %r9	 # tmp86,
	movl	%ecx, %r8d	 # tmp87,
	movq	%rax, %rdx	 # tmp88,
	leaq	.LC12(%rip), %rax	 #, tmp90
	movq	%rax, %rcx	 # tmp90,
	call	_Z6printfPKcz	 #
 # c:\users\pluto\scoop\apps\gcc\current\include\c++\11.2.0\utils\result.hpp:65: 		exit(1);
	.loc 7 65 7
	movl	$1, %ecx	 #,
	call	exit	 #
.L152:
 # c:\users\pluto\scoop\apps\gcc\current\include\c++\11.2.0\utils\result.hpp:67: }
	.loc 7 67 1
	nop	
	addq	$48, %rsp	 #,
	popq	%rbp	 #
.LCFI205:
	ret	
.LFE1322:
	.seh_endproc
	.section	.text$_ZNSt14_Bit_referenceC1EPmm,"x"
	.linkonce discard
	.align 2
	.globl	_ZNSt14_Bit_referenceC1EPmm
	.def	_ZNSt14_Bit_referenceC1EPmm;	.scl	2;	.type	32;	.endef
	.seh_proc	_ZNSt14_Bit_referenceC1EPmm
_ZNSt14_Bit_referenceC1EPmm:
.LFB1841:
	.file 8 "c:/users/pluto/scoop/apps/gcc/current/include/c++/11.2.0/bits/stl_bvector.h"
	.loc 8 77 5
	pushq	%rbp	 #
	.seh_pushreg	%rbp
.LCFI206:
	movq	%rsp, %rbp	 #,
	.seh_setframe	%rbp, 0
.LCFI207:
	.seh_endprologue
	movq	%rcx, 16(%rbp)	 # this, this
	movq	%rdx, 24(%rbp)	 # __x, __x
	movl	%r8d, 32(%rbp)	 # __y, __y
.LBB27:
 # c:\users\pluto\scoop\apps\gcc\current\include\c++\11.2.0\bits\stl_bvector.h:78:     : _M_p(__x), _M_mask(__y) { }
	.loc 8 78 7
	movq	16(%rbp), %rax	 # this, tmp82
	movq	24(%rbp), %rdx	 # __x, tmp83
	movq	%rdx, (%rax)	 # tmp83, this_2(D)->_M_p
 # c:\users\pluto\scoop\apps\gcc\current\include\c++\11.2.0\bits\stl_bvector.h:78:     : _M_p(__x), _M_mask(__y) { }
	.loc 8 78 18
	movq	16(%rbp), %rax	 # this, tmp84
	movl	32(%rbp), %edx	 # __y, tmp85
	movl	%edx, 8(%rax)	 # tmp85, this_2(D)->_M_mask
.LBE27:
 # c:\users\pluto\scoop\apps\gcc\current\include\c++\11.2.0\bits\stl_bvector.h:78:     : _M_p(__x), _M_mask(__y) { }
	.loc 8 78 33
	nop	
	popq	%rbp	 #
.LCFI208:
	ret	
.LFE1841:
	.seh_endproc
	.section	.text$_ZNKSt14_Bit_referencecvbEv,"x"
	.linkonce discard
	.align 2
	.globl	_ZNKSt14_Bit_referencecvbEv
	.def	_ZNKSt14_Bit_referencecvbEv;	.scl	2;	.type	32;	.endef
	.seh_proc	_ZNKSt14_Bit_referencecvbEv
_ZNKSt14_Bit_referencecvbEv:
.LFB1845:
	.loc 8 86 5
	pushq	%rbp	 #
	.seh_pushreg	%rbp
.LCFI209:
	movq	%rsp, %rbp	 #,
	.seh_setframe	%rbp, 0
.LCFI210:
	.seh_endprologue
	movq	%rcx, 16(%rbp)	 # this, this
 # c:\users\pluto\scoop\apps\gcc\current\include\c++\11.2.0\bits\stl_bvector.h:87:     { return !!(*_M_p & _M_mask); }
	.loc 8 87 18
	movq	16(%rbp), %rax	 # this, tmp88
	movq	(%rax), %rax	 # this_6(D)->_M_p, _1
 # c:\users\pluto\scoop\apps\gcc\current\include\c++\11.2.0\bits\stl_bvector.h:87:     { return !!(*_M_p & _M_mask); }
	.loc 8 87 17
	movl	(%rax), %edx	 # *_1, _2
 # c:\users\pluto\scoop\apps\gcc\current\include\c++\11.2.0\bits\stl_bvector.h:87:     { return !!(*_M_p & _M_mask); }
	.loc 8 87 25
	movq	16(%rbp), %rax	 # this, tmp89
	movl	8(%rax), %eax	 # this_6(D)->_M_mask, _3
 # c:\users\pluto\scoop\apps\gcc\current\include\c++\11.2.0\bits\stl_bvector.h:87:     { return !!(*_M_p & _M_mask); }
	.loc 8 87 23
	andl	%edx, %eax	 # _2, _4
 # c:\users\pluto\scoop\apps\gcc\current\include\c++\11.2.0\bits\stl_bvector.h:87:     { return !!(*_M_p & _M_mask); }
	.loc 8 87 32
	testl	%eax, %eax	 # _4
	setne	%al	 #, _7
 # c:\users\pluto\scoop\apps\gcc\current\include\c++\11.2.0\bits\stl_bvector.h:87:     { return !!(*_M_p & _M_mask); }
	.loc 8 87 35
	popq	%rbp	 #
.LCFI211:
	ret	
.LFE1845:
	.seh_endproc
	.section	.text$_ZNSt14_Bit_referenceaSEb,"x"
	.linkonce discard
	.align 2
	.globl	_ZNSt14_Bit_referenceaSEb
	.def	_ZNSt14_Bit_referenceaSEb;	.scl	2;	.type	32;	.endef
	.seh_proc	_ZNSt14_Bit_referenceaSEb
_ZNSt14_Bit_referenceaSEb:
.LFB1846:
	.loc 8 90 5
	pushq	%rbp	 #
	.seh_pushreg	%rbp
.LCFI212:
	movq	%rsp, %rbp	 #,
	.seh_setframe	%rbp, 0
.LCFI213:
	.seh_endprologue
	movq	%rcx, 16(%rbp)	 # this, this
	movl	%edx, %eax	 # __x, tmp95
	movb	%al, 24(%rbp)	 # tmp96, __x
 # c:\users\pluto\scoop\apps\gcc\current\include\c++\11.2.0\bits\stl_bvector.h:92:       if (__x)
	.loc 8 92 7
	cmpb	$0, 24(%rbp)	 #, __x
	je	.L157	 #,
 # c:\users\pluto\scoop\apps\gcc\current\include\c++\11.2.0\bits\stl_bvector.h:93: 	*_M_p |= _M_mask;
	.loc 8 93 3
	movq	16(%rbp), %rax	 # this, tmp97
	movq	(%rax), %rax	 # this_15(D)->_M_p, _1
 # c:\users\pluto\scoop\apps\gcc\current\include\c++\11.2.0\bits\stl_bvector.h:93: 	*_M_p |= _M_mask;
	.loc 8 93 8
	movl	(%rax), %ecx	 # *_1, _2
 # c:\users\pluto\scoop\apps\gcc\current\include\c++\11.2.0\bits\stl_bvector.h:93: 	*_M_p |= _M_mask;
	.loc 8 93 11
	movq	16(%rbp), %rax	 # this, tmp98
	movl	8(%rax), %edx	 # this_15(D)->_M_mask, _3
 # c:\users\pluto\scoop\apps\gcc\current\include\c++\11.2.0\bits\stl_bvector.h:93: 	*_M_p |= _M_mask;
	.loc 8 93 3
	movq	16(%rbp), %rax	 # this, tmp99
	movq	(%rax), %rax	 # this_15(D)->_M_p, _4
 # c:\users\pluto\scoop\apps\gcc\current\include\c++\11.2.0\bits\stl_bvector.h:93: 	*_M_p |= _M_mask;
	.loc 8 93 8
	orl	%ecx, %edx	 # _2, _5
	movl	%edx, (%rax)	 # _5, *_4
	jmp	.L158	 #
.L157:
 # c:\users\pluto\scoop\apps\gcc\current\include\c++\11.2.0\bits\stl_bvector.h:95: 	*_M_p &= ~_M_mask;
	.loc 8 95 3
	movq	16(%rbp), %rax	 # this, tmp100
	movq	(%rax), %rax	 # this_15(D)->_M_p, _6
 # c:\users\pluto\scoop\apps\gcc\current\include\c++\11.2.0\bits\stl_bvector.h:95: 	*_M_p &= ~_M_mask;
	.loc 8 95 8
	movl	(%rax), %edx	 # *_6, _7
 # c:\users\pluto\scoop\apps\gcc\current\include\c++\11.2.0\bits\stl_bvector.h:95: 	*_M_p &= ~_M_mask;
	.loc 8 95 12
	movq	16(%rbp), %rax	 # this, tmp101
	movl	8(%rax), %eax	 # this_15(D)->_M_mask, _8
 # c:\users\pluto\scoop\apps\gcc\current\include\c++\11.2.0\bits\stl_bvector.h:95: 	*_M_p &= ~_M_mask;
	.loc 8 95 11
	notl	%eax	 # _8
	movl	%eax, %ecx	 # _8, _9
 # c:\users\pluto\scoop\apps\gcc\current\include\c++\11.2.0\bits\stl_bvector.h:95: 	*_M_p &= ~_M_mask;
	.loc 8 95 3
	movq	16(%rbp), %rax	 # this, tmp102
	movq	(%rax), %rax	 # this_15(D)->_M_p, _10
 # c:\users\pluto\scoop\apps\gcc\current\include\c++\11.2.0\bits\stl_bvector.h:95: 	*_M_p &= ~_M_mask;
	.loc 8 95 8
	andl	%ecx, %edx	 # _9, _11
	movl	%edx, (%rax)	 # _11, *_10
.L158:
 # c:\users\pluto\scoop\apps\gcc\current\include\c++\11.2.0\bits\stl_bvector.h:96:       return *this;
	.loc 8 96 15
	movq	16(%rbp), %rax	 # this, _18
 # c:\users\pluto\scoop\apps\gcc\current\include\c++\11.2.0\bits\stl_bvector.h:97:     }
	.loc 8 97 5
	popq	%rbp	 #
.LCFI214:
	ret	
.LFE1846:
	.seh_endproc
	.section	.text$_ZNSt14_Bit_referenceaSERKS_,"x"
	.linkonce discard
	.align 2
	.globl	_ZNSt14_Bit_referenceaSERKS_
	.def	_ZNSt14_Bit_referenceaSERKS_;	.scl	2;	.type	32;	.endef
	.seh_proc	_ZNSt14_Bit_referenceaSERKS_
_ZNSt14_Bit_referenceaSERKS_:
.LFB1847:
	.loc 8 100 5
	pushq	%rbp	 #
	.seh_pushreg	%rbp
.LCFI215:
	movq	%rsp, %rbp	 #,
	.seh_setframe	%rbp, 0
.LCFI216:
	subq	$32, %rsp	 #,
	.seh_stackalloc	32
	.seh_endprologue
	movq	%rcx, 16(%rbp)	 # this, this
	movq	%rdx, 24(%rbp)	 # __x, __x
 # c:\users\pluto\scoop\apps\gcc\current\include\c++\11.2.0\bits\stl_bvector.h:101:     { return *this = bool(__x); }
	.loc 8 101 22
	movq	24(%rbp), %rax	 # __x, tmp86
	movq	%rax, %rcx	 # tmp86,
	call	_ZNKSt14_Bit_referencecvbEv	 #
 # c:\users\pluto\scoop\apps\gcc\current\include\c++\11.2.0\bits\stl_bvector.h:101:     { return *this = bool(__x); }
	.loc 8 101 30
	movzbl	%al, %eax	 # _1, _2
	movl	%eax, %edx	 # _2,
	movq	16(%rbp), %rcx	 # this,
	call	_ZNSt14_Bit_referenceaSEb	 #
 # c:\users\pluto\scoop\apps\gcc\current\include\c++\11.2.0\bits\stl_bvector.h:101:     { return *this = bool(__x); }
	.loc 8 101 33
	addq	$32, %rsp	 #,
	popq	%rbp	 #
.LCFI217:
	ret	
.LFE1847:
	.seh_endproc
	.section	.text$_ZNSt18_Bit_iterator_baseC2EPmj,"x"
	.linkonce discard
	.align 2
	.globl	_ZNSt18_Bit_iterator_baseC2EPmj
	.def	_ZNSt18_Bit_iterator_baseC2EPmj;	.scl	2;	.type	32;	.endef
	.seh_proc	_ZNSt18_Bit_iterator_baseC2EPmj
_ZNSt18_Bit_iterator_baseC2EPmj:
.LFB1855:
	.loc 8 148 5
	pushq	%rbp	 #
	.seh_pushreg	%rbp
.LCFI218:
	movq	%rsp, %rbp	 #,
	.seh_setframe	%rbp, 0
.LCFI219:
	.seh_endprologue
	movq	%rcx, 16(%rbp)	 # this, this
	movq	%rdx, 24(%rbp)	 # __x, __x
	movl	%r8d, 32(%rbp)	 # __y, __y
.LBB28:
 # c:\users\pluto\scoop\apps\gcc\current\include\c++\11.2.0\bits\stl_bvector.h:149:     : _M_p(__x), _M_offset(__y) { }
	.loc 8 149 7
	movq	16(%rbp), %rax	 # this, tmp82
	movq	24(%rbp), %rdx	 # __x, tmp83
	movq	%rdx, (%rax)	 # tmp83, this_2(D)->_M_p
 # c:\users\pluto\scoop\apps\gcc\current\include\c++\11.2.0\bits\stl_bvector.h:149:     : _M_p(__x), _M_offset(__y) { }
	.loc 8 149 18
	movq	16(%rbp), %rax	 # this, tmp84
	movl	32(%rbp), %edx	 # __y, tmp85
	movl	%edx, 8(%rax)	 # tmp85, this_2(D)->_M_offset
.LBE28:
 # c:\users\pluto\scoop\apps\gcc\current\include\c++\11.2.0\bits\stl_bvector.h:149:     : _M_p(__x), _M_offset(__y) { }
	.loc 8 149 35
	nop	
	popq	%rbp	 #
.LCFI220:
	ret	
.LFE1855:
	.seh_endproc
	.section	.text$_ZNSt18_Bit_iterator_base10_M_bump_upEv,"x"
	.linkonce discard
	.align 2
	.globl	_ZNSt18_Bit_iterator_base10_M_bump_upEv
	.def	_ZNSt18_Bit_iterator_base10_M_bump_upEv;	.scl	2;	.type	32;	.endef
	.seh_proc	_ZNSt18_Bit_iterator_base10_M_bump_upEv
_ZNSt18_Bit_iterator_base10_M_bump_upEv:
.LFB1857:
	.loc 8 152 5
	pushq	%rbp	 #
	.seh_pushreg	%rbp
.LCFI221:
	movq	%rsp, %rbp	 #,
	.seh_setframe	%rbp, 0
.LCFI222:
	.seh_endprologue
	movq	%rcx, 16(%rbp)	 # this, this
 # c:\users\pluto\scoop\apps\gcc\current\include\c++\11.2.0\bits\stl_bvector.h:154:       if (_M_offset++ == int(_S_word_bit) - 1)
	.loc 8 154 11
	movq	16(%rbp), %rax	 # this, tmp87
	movl	8(%rax), %eax	 # this_8(D)->_M_offset, _1
 # c:\users\pluto\scoop\apps\gcc\current\include\c++\11.2.0\bits\stl_bvector.h:154:       if (_M_offset++ == int(_S_word_bit) - 1)
	.loc 8 154 20
	leal	1(%rax), %ecx	 #, _3
	movq	16(%rbp), %rdx	 # this, tmp88
	movl	%ecx, 8(%rdx)	 # _3, this_8(D)->_M_offset
 # c:\users\pluto\scoop\apps\gcc\current\include\c++\11.2.0\bits\stl_bvector.h:154:       if (_M_offset++ == int(_S_word_bit) - 1)
	.loc 8 154 23
	cmpl	$31, %eax	 #, _1
	sete	%al	 #, retval.22_10
 # c:\users\pluto\scoop\apps\gcc\current\include\c++\11.2.0\bits\stl_bvector.h:154:       if (_M_offset++ == int(_S_word_bit) - 1)
	.loc 8 154 7
	testb	%al, %al	 # retval.22_10
	je	.L165	 #,
 # c:\users\pluto\scoop\apps\gcc\current\include\c++\11.2.0\bits\stl_bvector.h:156: 	  _M_offset = 0;
	.loc 8 156 14
	movq	16(%rbp), %rax	 # this, tmp89
	movl	$0, 8(%rax)	 #, this_8(D)->_M_offset
 # c:\users\pluto\scoop\apps\gcc\current\include\c++\11.2.0\bits\stl_bvector.h:157: 	  ++_M_p;
	.loc 8 157 6
	movq	16(%rbp), %rax	 # this, tmp90
	movq	(%rax), %rax	 # this_8(D)->_M_p, _4
 # c:\users\pluto\scoop\apps\gcc\current\include\c++\11.2.0\bits\stl_bvector.h:157: 	  ++_M_p;
	.loc 8 157 4
	leaq	4(%rax), %rdx	 #, _5
	movq	16(%rbp), %rax	 # this, tmp91
	movq	%rdx, (%rax)	 # _5, this_8(D)->_M_p
.L165:
 # c:\users\pluto\scoop\apps\gcc\current\include\c++\11.2.0\bits\stl_bvector.h:159:     }
	.loc 8 159 5
	nop	
	popq	%rbp	 #
.LCFI223:
	ret	
.LFE1857:
	.seh_endproc
	.section	.text$_ZNSt18_Bit_iterator_base12_M_bump_downEv,"x"
	.linkonce discard
	.align 2
	.globl	_ZNSt18_Bit_iterator_base12_M_bump_downEv
	.def	_ZNSt18_Bit_iterator_base12_M_bump_downEv;	.scl	2;	.type	32;	.endef
	.seh_proc	_ZNSt18_Bit_iterator_base12_M_bump_downEv
_ZNSt18_Bit_iterator_base12_M_bump_downEv:
.LFB1858:
	.loc 8 162 5
	pushq	%rbp	 #
	.seh_pushreg	%rbp
.LCFI224:
	movq	%rsp, %rbp	 #,
	.seh_setframe	%rbp, 0
.LCFI225:
	.seh_endprologue
	movq	%rcx, 16(%rbp)	 # this, this
 # c:\users\pluto\scoop\apps\gcc\current\include\c++\11.2.0\bits\stl_bvector.h:164:       if (_M_offset-- == 0)
	.loc 8 164 11
	movq	16(%rbp), %rax	 # this, tmp87
	movl	8(%rax), %eax	 # this_8(D)->_M_offset, _1
 # c:\users\pluto\scoop\apps\gcc\current\include\c++\11.2.0\bits\stl_bvector.h:164:       if (_M_offset-- == 0)
	.loc 8 164 20
	leal	-1(%rax), %ecx	 #, _3
	movq	16(%rbp), %rdx	 # this, tmp88
	movl	%ecx, 8(%rdx)	 # _3, this_8(D)->_M_offset
 # c:\users\pluto\scoop\apps\gcc\current\include\c++\11.2.0\bits\stl_bvector.h:164:       if (_M_offset-- == 0)
	.loc 8 164 23
	testl	%eax, %eax	 # _1
	sete	%al	 #, retval.32_10
 # c:\users\pluto\scoop\apps\gcc\current\include\c++\11.2.0\bits\stl_bvector.h:164:       if (_M_offset-- == 0)
	.loc 8 164 7
	testb	%al, %al	 # retval.32_10
	je	.L168	 #,
 # c:\users\pluto\scoop\apps\gcc\current\include\c++\11.2.0\bits\stl_bvector.h:166: 	  _M_offset = int(_S_word_bit) - 1;
	.loc 8 166 14
	movq	16(%rbp), %rax	 # this, tmp89
	movl	$31, 8(%rax)	 #, this_8(D)->_M_offset
 # c:\users\pluto\scoop\apps\gcc\current\include\c++\11.2.0\bits\stl_bvector.h:167: 	  --_M_p;
	.loc 8 167 6
	movq	16(%rbp), %rax	 # this, tmp90
	movq	(%rax), %rax	 # this_8(D)->_M_p, _4
 # c:\users\pluto\scoop\apps\gcc\current\include\c++\11.2.0\bits\stl_bvector.h:167: 	  --_M_p;
	.loc 8 167 4
	leaq	-4(%rax), %rdx	 #, _5
	movq	16(%rbp), %rax	 # this, tmp91
	movq	%rdx, (%rax)	 # _5, this_8(D)->_M_p
.L168:
 # c:\users\pluto\scoop\apps\gcc\current\include\c++\11.2.0\bits\stl_bvector.h:169:     }
	.loc 8 169 5
	nop	
	popq	%rbp	 #
.LCFI226:
	ret	
.LFE1858:
	.seh_endproc
	.section	.text$_ZNSt18_Bit_iterator_base7_M_incrEx,"x"
	.linkonce discard
	.align 2
	.globl	_ZNSt18_Bit_iterator_base7_M_incrEx
	.def	_ZNSt18_Bit_iterator_base7_M_incrEx;	.scl	2;	.type	32;	.endef
	.seh_proc	_ZNSt18_Bit_iterator_base7_M_incrEx
_ZNSt18_Bit_iterator_base7_M_incrEx:
.LFB1859:
	.loc 8 172 5
	pushq	%rbp	 #
	.seh_pushreg	%rbp
.LCFI227:
	movq	%rsp, %rbp	 #,
	.seh_setframe	%rbp, 0
.LCFI228:
	subq	$16, %rsp	 #,
	.seh_stackalloc	16
	.seh_endprologue
	movq	%rcx, 16(%rbp)	 # this, this
	movq	%rdx, 24(%rbp)	 # __i, __i
 # c:\users\pluto\scoop\apps\gcc\current\include\c++\11.2.0\bits\stl_bvector.h:174:       difference_type __n = __i + _M_offset;
	.loc 8 174 35
	movq	16(%rbp), %rax	 # this, tmp92
	movl	8(%rax), %eax	 # this_14(D)->_M_offset, _1
	movl	%eax, %edx	 # _1, _2
 # c:\users\pluto\scoop\apps\gcc\current\include\c++\11.2.0\bits\stl_bvector.h:174:       difference_type __n = __i + _M_offset;
	.loc 8 174 23
	movq	24(%rbp), %rax	 # __i, tmp96
	addq	%rdx, %rax	 # _2, tmp95
	movq	%rax, -8(%rbp)	 # tmp95, __n
 # c:\users\pluto\scoop\apps\gcc\current\include\c++\11.2.0\bits\stl_bvector.h:175:       _M_p += __n / int(_S_word_bit);
	.loc 8 175 12
	movq	16(%rbp), %rax	 # this, tmp97
	movq	(%rax), %rcx	 # this_14(D)->_M_p, _3
 # c:\users\pluto\scoop\apps\gcc\current\include\c++\11.2.0\bits\stl_bvector.h:175:       _M_p += __n / int(_S_word_bit);
	.loc 8 175 19
	movq	-8(%rbp), %rax	 # __n, tmp98
	leaq	31(%rax), %rdx	 #, tmp100
	testq	%rax, %rax	 # tmp99
	cmovs	%rdx, %rax	 # tmp100,, tmp99
	sarq	$5, %rax	 #, tmp101
 # c:\users\pluto\scoop\apps\gcc\current\include\c++\11.2.0\bits\stl_bvector.h:175:       _M_p += __n / int(_S_word_bit);
	.loc 8 175 12
	salq	$2, %rax	 #, _6
	leaq	(%rcx,%rax), %rdx	 #, _7
	movq	16(%rbp), %rax	 # this, tmp102
	movq	%rdx, (%rax)	 # _7, this_14(D)->_M_p
 # c:\users\pluto\scoop\apps\gcc\current\include\c++\11.2.0\bits\stl_bvector.h:176:       __n = __n % int(_S_word_bit);
	.loc 8 176 11
	movq	-8(%rbp), %rax	 # __n, tmp104
	cqto
	shrq	$59, %rdx	 #, tmp106
	addq	%rdx, %rax	 # tmp106, tmp107
	andl	$31, %eax	 #, tmp108
	subq	%rdx, %rax	 # tmp106, tmp109
	movq	%rax, -8(%rbp)	 # tmp109, __n
 # c:\users\pluto\scoop\apps\gcc\current\include\c++\11.2.0\bits\stl_bvector.h:177:       if (__n < 0)
	.loc 8 177 7
	cmpq	$0, -8(%rbp)	 #, __n
	jns	.L170	 #,
 # c:\users\pluto\scoop\apps\gcc\current\include\c++\11.2.0\bits\stl_bvector.h:179: 	  __n += int(_S_word_bit);
	.loc 8 179 8
	addq	$32, -8(%rbp)	 #, __n
 # c:\users\pluto\scoop\apps\gcc\current\include\c++\11.2.0\bits\stl_bvector.h:180: 	  --_M_p;
	.loc 8 180 6
	movq	16(%rbp), %rax	 # this, tmp110
	movq	(%rax), %rax	 # this_14(D)->_M_p, _8
 # c:\users\pluto\scoop\apps\gcc\current\include\c++\11.2.0\bits\stl_bvector.h:180: 	  --_M_p;
	.loc 8 180 4
	leaq	-4(%rax), %rdx	 #, _9
	movq	16(%rbp), %rax	 # this, tmp111
	movq	%rdx, (%rax)	 # _9, this_14(D)->_M_p
.L170:
 # c:\users\pluto\scoop\apps\gcc\current\include\c++\11.2.0\bits\stl_bvector.h:182:       _M_offset = static_cast<unsigned int>(__n);
	.loc 8 182 17
	movq	-8(%rbp), %rax	 # __n, tmp112
	movl	%eax, %edx	 # tmp112, _10
	movq	16(%rbp), %rax	 # this, tmp113
	movl	%edx, 8(%rax)	 # _10, this_14(D)->_M_offset
 # c:\users\pluto\scoop\apps\gcc\current\include\c++\11.2.0\bits\stl_bvector.h:183:     }
	.loc 8 183 5
	nop	
	addq	$16, %rsp	 #,
	popq	%rbp	 #
.LCFI229:
	ret	
.LFE1859:
	.seh_endproc
	.section	.text$_ZStmiRKSt18_Bit_iterator_baseS1_,"x"
	.linkonce discard
	.globl	_ZStmiRKSt18_Bit_iterator_baseS1_
	.def	_ZStmiRKSt18_Bit_iterator_baseS1_;	.scl	2;	.type	32;	.endef
	.seh_proc	_ZStmiRKSt18_Bit_iterator_baseS1_
_ZStmiRKSt18_Bit_iterator_baseS1_:
.LFB1862:
	.loc 8 224 5
	pushq	%rbp	 #
	.seh_pushreg	%rbp
.LCFI230:
	movq	%rsp, %rbp	 #,
	.seh_setframe	%rbp, 0
.LCFI231:
	.seh_endprologue
	movq	%rcx, 16(%rbp)	 # __x, __x
	movq	%rdx, 24(%rbp)	 # __y, __y
 # c:\users\pluto\scoop\apps\gcc\current\include\c++\11.2.0\bits\stl_bvector.h:226:       return (int(_S_word_bit) * (__x._M_p - __y._M_p)
	.loc 8 226 39
	movq	16(%rbp), %rax	 # __x, tmp93
	movq	(%rax), %rdx	 # __x_11(D)->_M_p, _1
 # c:\users\pluto\scoop\apps\gcc\current\include\c++\11.2.0\bits\stl_bvector.h:226:       return (int(_S_word_bit) * (__x._M_p - __y._M_p)
	.loc 8 226 50
	movq	24(%rbp), %rax	 # __y, tmp94
	movq	(%rax), %rcx	 # __y_12(D)->_M_p, _2
 # c:\users\pluto\scoop\apps\gcc\current\include\c++\11.2.0\bits\stl_bvector.h:226:       return (int(_S_word_bit) * (__x._M_p - __y._M_p)
	.loc 8 226 44
	movq	%rdx, %rax	 # _1, _1
	subq	%rcx, %rax	 # _2, _1
 # c:\users\pluto\scoop\apps\gcc\current\include\c++\11.2.0\bits\stl_bvector.h:227: 	      + __x._M_offset - __y._M_offset);
	.loc 8 227 8
	leaq	0(,%rax,8), %rdx	 #, _4
 # c:\users\pluto\scoop\apps\gcc\current\include\c++\11.2.0\bits\stl_bvector.h:227: 	      + __x._M_offset - __y._M_offset);
	.loc 8 227 14
	movq	16(%rbp), %rax	 # __x, tmp95
	movl	8(%rax), %eax	 # __x_11(D)->_M_offset, _5
	movl	%eax, %eax	 # _5, _6
 # c:\users\pluto\scoop\apps\gcc\current\include\c++\11.2.0\bits\stl_bvector.h:227: 	      + __x._M_offset - __y._M_offset);
	.loc 8 227 8
	addq	%rax, %rdx	 # _6, _7
 # c:\users\pluto\scoop\apps\gcc\current\include\c++\11.2.0\bits\stl_bvector.h:227: 	      + __x._M_offset - __y._M_offset);
	.loc 8 227 30
	movq	24(%rbp), %rax	 # __y, tmp96
	movl	8(%rax), %eax	 # __y_12(D)->_M_offset, _8
	movl	%eax, %ecx	 # _8, _9
 # c:\users\pluto\scoop\apps\gcc\current\include\c++\11.2.0\bits\stl_bvector.h:227: 	      + __x._M_offset - __y._M_offset);
	.loc 8 227 39
	movq	%rdx, %rax	 # _7, _7
	subq	%rcx, %rax	 # _9, _7
 # c:\users\pluto\scoop\apps\gcc\current\include\c++\11.2.0\bits\stl_bvector.h:228:     }
	.loc 8 228 5
	popq	%rbp	 #
.LCFI232:
	ret	
.LFE1862:
	.seh_endproc
	.section	.text$_ZNSt13_Bit_iteratorC1Ev,"x"
	.linkonce discard
	.align 2
	.globl	_ZNSt13_Bit_iteratorC1Ev
	.def	_ZNSt13_Bit_iteratorC1Ev;	.scl	2;	.type	32;	.endef
	.seh_proc	_ZNSt13_Bit_iteratorC1Ev
_ZNSt13_Bit_iteratorC1Ev:
.LFB1865:
	.loc 8 241 5
	pushq	%rbp	 #
	.seh_pushreg	%rbp
.LCFI233:
	movq	%rsp, %rbp	 #,
	.seh_setframe	%rbp, 0
.LCFI234:
	subq	$32, %rsp	 #,
	.seh_stackalloc	32
	.seh_endprologue
	movq	%rcx, 16(%rbp)	 # this, this
.LBB29:
 # c:\users\pluto\scoop\apps\gcc\current\include\c++\11.2.0\bits\stl_bvector.h:241:     _Bit_iterator() : _Bit_iterator_base(0, 0) { }
	.loc 8 241 46
	movq	16(%rbp), %rax	 # this, _1
	movl	$0, %r8d	 #,
	movl	$0, %edx	 #,
	movq	%rax, %rcx	 # _1,
	call	_ZNSt18_Bit_iterator_baseC2EPmj	 #
.LBE29:
 # c:\users\pluto\scoop\apps\gcc\current\include\c++\11.2.0\bits\stl_bvector.h:241:     _Bit_iterator() : _Bit_iterator_base(0, 0) { }
	.loc 8 241 50
	nop	
	addq	$32, %rsp	 #,
	popq	%rbp	 #
.LCFI235:
	ret	
.LFE1865:
	.seh_endproc
	.section	.text$_ZNSt13_Bit_iteratorC1EPmj,"x"
	.linkonce discard
	.align 2
	.globl	_ZNSt13_Bit_iteratorC1EPmj
	.def	_ZNSt13_Bit_iteratorC1EPmj;	.scl	2;	.type	32;	.endef
	.seh_proc	_ZNSt13_Bit_iteratorC1EPmj
_ZNSt13_Bit_iteratorC1EPmj:
.LFB1868:
	.loc 8 243 5
	pushq	%rbp	 #
	.seh_pushreg	%rbp
.LCFI236:
	movq	%rsp, %rbp	 #,
	.seh_setframe	%rbp, 0
.LCFI237:
	subq	$32, %rsp	 #,
	.seh_stackalloc	32
	.seh_endprologue
	movq	%rcx, 16(%rbp)	 # this, this
	movq	%rdx, 24(%rbp)	 # __x, __x
	movl	%r8d, 32(%rbp)	 # __y, __y
.LBB30:
 # c:\users\pluto\scoop\apps\gcc\current\include\c++\11.2.0\bits\stl_bvector.h:244:     : _Bit_iterator_base(__x, __y) { }
	.loc 8 244 34
	movq	16(%rbp), %rax	 # this, _1
	movl	32(%rbp), %ecx	 # __y, tmp83
	movq	24(%rbp), %rdx	 # __x, tmp84
	movl	%ecx, %r8d	 # tmp83,
	movq	%rax, %rcx	 # _1,
	call	_ZNSt18_Bit_iterator_baseC2EPmj	 #
.LBE30:
 # c:\users\pluto\scoop\apps\gcc\current\include\c++\11.2.0\bits\stl_bvector.h:244:     : _Bit_iterator_base(__x, __y) { }
	.loc 8 244 38
	nop	
	addq	$32, %rsp	 #,
	popq	%rbp	 #
.LCFI238:
	ret	
.LFE1868:
	.seh_endproc
	.section	.text$_ZNKSt13_Bit_iteratordeEv,"x"
	.linkonce discard
	.align 2
	.globl	_ZNKSt13_Bit_iteratordeEv
	.def	_ZNKSt13_Bit_iteratordeEv;	.scl	2;	.type	32;	.endef
	.seh_proc	_ZNKSt13_Bit_iteratordeEv
_ZNKSt13_Bit_iteratordeEv:
.LFB1870:
	.loc 8 251 5
	pushq	%rbp	 #
	.seh_pushreg	%rbp
.LCFI239:
	movq	%rsp, %rbp	 #,
	.seh_setframe	%rbp, 0
.LCFI240:
	subq	$32, %rsp	 #,
	.seh_stackalloc	32
	.seh_endprologue
	movq	%rcx, 16(%rbp)	 # .result_ptr, .result_ptr
	movq	%rdx, 24(%rbp)	 # this, this
 # c:\users\pluto\scoop\apps\gcc\current\include\c++\11.2.0\bits\stl_bvector.h:252:     { return reference(_M_p, 1UL << _M_offset); }
	.loc 8 252 37
	movq	24(%rbp), %rax	 # this, tmp85
	movl	8(%rax), %eax	 # this_5(D)->D.34297._M_offset, _1
 # c:\users\pluto\scoop\apps\gcc\current\include\c++\11.2.0\bits\stl_bvector.h:252:     { return reference(_M_p, 1UL << _M_offset); }
	.loc 8 252 46
	movl	$1, %edx	 #, tmp86
	movl	%eax, %ecx	 # _1, tmp89
	sall	%cl, %edx	 # tmp89, _2
 # c:\users\pluto\scoop\apps\gcc\current\include\c++\11.2.0\bits\stl_bvector.h:252:     { return reference(_M_p, 1UL << _M_offset); }
	.loc 8 252 24
	movq	24(%rbp), %rax	 # this, tmp87
	movq	(%rax), %rax	 # this_5(D)->D.34297._M_p, _3
 # c:\users\pluto\scoop\apps\gcc\current\include\c++\11.2.0\bits\stl_bvector.h:252:     { return reference(_M_p, 1UL << _M_offset); }
	.loc 8 252 46
	movl	%edx, %r8d	 # _2,
	movq	%rax, %rdx	 # _3,
	movq	16(%rbp), %rcx	 # .result_ptr,
	call	_ZNSt14_Bit_referenceC1EPmm	 #
 # c:\users\pluto\scoop\apps\gcc\current\include\c++\11.2.0\bits\stl_bvector.h:252:     { return reference(_M_p, 1UL << _M_offset); }
	.loc 8 252 49
	movq	16(%rbp), %rax	 # .result_ptr,
	addq	$32, %rsp	 #,
	popq	%rbp	 #
.LCFI241:
	ret	
.LFE1870:
	.seh_endproc
	.section	.text$_ZNSt13_Bit_iteratorppEv,"x"
	.linkonce discard
	.align 2
	.globl	_ZNSt13_Bit_iteratorppEv
	.def	_ZNSt13_Bit_iteratorppEv;	.scl	2;	.type	32;	.endef
	.seh_proc	_ZNSt13_Bit_iteratorppEv
_ZNSt13_Bit_iteratorppEv:
.LFB1871:
	.loc 8 255 5
	pushq	%rbp	 #
	.seh_pushreg	%rbp
.LCFI242:
	movq	%rsp, %rbp	 #,
	.seh_setframe	%rbp, 0
.LCFI243:
	subq	$32, %rsp	 #,
	.seh_stackalloc	32
	.seh_endprologue
	movq	%rcx, 16(%rbp)	 # this, this
 # c:\users\pluto\scoop\apps\gcc\current\include\c++\11.2.0\bits\stl_bvector.h:257:       _M_bump_up();
	.loc 8 257 17
	movq	16(%rbp), %rax	 # this, _1
	movq	%rax, %rcx	 # _1,
	call	_ZNSt18_Bit_iterator_base10_M_bump_upEv	 #
 # c:\users\pluto\scoop\apps\gcc\current\include\c++\11.2.0\bits\stl_bvector.h:258:       return *this;
	.loc 8 258 15
	movq	16(%rbp), %rax	 # this, _5
 # c:\users\pluto\scoop\apps\gcc\current\include\c++\11.2.0\bits\stl_bvector.h:259:     }
	.loc 8 259 5
	addq	$32, %rsp	 #,
	popq	%rbp	 #
.LCFI244:
	ret	
.LFE1871:
	.seh_endproc
	.section	.text$_ZNSt13_Bit_iteratormmEv,"x"
	.linkonce discard
	.align 2
	.globl	_ZNSt13_Bit_iteratormmEv
	.def	_ZNSt13_Bit_iteratormmEv;	.scl	2;	.type	32;	.endef
	.seh_proc	_ZNSt13_Bit_iteratormmEv
_ZNSt13_Bit_iteratormmEv:
.LFB1873:
	.loc 8 270 5
	pushq	%rbp	 #
	.seh_pushreg	%rbp
.LCFI245:
	movq	%rsp, %rbp	 #,
	.seh_setframe	%rbp, 0
.LCFI246:
	subq	$32, %rsp	 #,
	.seh_stackalloc	32
	.seh_endprologue
	movq	%rcx, 16(%rbp)	 # this, this
 # c:\users\pluto\scoop\apps\gcc\current\include\c++\11.2.0\bits\stl_bvector.h:272:       _M_bump_down();
	.loc 8 272 19
	movq	16(%rbp), %rax	 # this, _1
	movq	%rax, %rcx	 # _1,
	call	_ZNSt18_Bit_iterator_base12_M_bump_downEv	 #
 # c:\users\pluto\scoop\apps\gcc\current\include\c++\11.2.0\bits\stl_bvector.h:273:       return *this;
	.loc 8 273 15
	movq	16(%rbp), %rax	 # this, _5
 # c:\users\pluto\scoop\apps\gcc\current\include\c++\11.2.0\bits\stl_bvector.h:274:     }
	.loc 8 274 5
	addq	$32, %rsp	 #,
	popq	%rbp	 #
.LCFI247:
	ret	
.LFE1873:
	.seh_endproc
	.section	.text$_ZNSt13_Bit_iteratorpLEx,"x"
	.linkonce discard
	.align 2
	.globl	_ZNSt13_Bit_iteratorpLEx
	.def	_ZNSt13_Bit_iteratorpLEx;	.scl	2;	.type	32;	.endef
	.seh_proc	_ZNSt13_Bit_iteratorpLEx
_ZNSt13_Bit_iteratorpLEx:
.LFB1875:
	.loc 8 285 5
	pushq	%rbp	 #
	.seh_pushreg	%rbp
.LCFI248:
	movq	%rsp, %rbp	 #,
	.seh_setframe	%rbp, 0
.LCFI249:
	subq	$32, %rsp	 #,
	.seh_stackalloc	32
	.seh_endprologue
	movq	%rcx, 16(%rbp)	 # this, this
	movq	%rdx, 24(%rbp)	 # __i, __i
 # c:\users\pluto\scoop\apps\gcc\current\include\c++\11.2.0\bits\stl_bvector.h:287:       _M_incr(__i);
	.loc 8 287 14
	movq	16(%rbp), %rax	 # this, _1
	movq	24(%rbp), %rdx	 # __i, tmp85
	movq	%rax, %rcx	 # _1,
	call	_ZNSt18_Bit_iterator_base7_M_incrEx	 #
 # c:\users\pluto\scoop\apps\gcc\current\include\c++\11.2.0\bits\stl_bvector.h:288:       return *this;
	.loc 8 288 15
	movq	16(%rbp), %rax	 # this, _6
 # c:\users\pluto\scoop\apps\gcc\current\include\c++\11.2.0\bits\stl_bvector.h:289:     }
	.loc 8 289 5
	addq	$32, %rsp	 #,
	popq	%rbp	 #
.LCFI250:
	ret	
.LFE1875:
	.seh_endproc
	.section	.text$_ZNKSt13_Bit_iteratorixEx,"x"
	.linkonce discard
	.align 2
	.globl	_ZNKSt13_Bit_iteratorixEx
	.def	_ZNKSt13_Bit_iteratorixEx;	.scl	2;	.type	32;	.endef
	.seh_proc	_ZNKSt13_Bit_iteratorixEx
_ZNKSt13_Bit_iteratorixEx:
.LFB1877:
	.loc 8 299 5
	pushq	%rbp	 #
	.seh_pushreg	%rbp
.LCFI251:
	movq	%rsp, %rbp	 #,
	.seh_setframe	%rbp, 0
.LCFI252:
	subq	$48, %rsp	 #,
	.seh_stackalloc	48
	.seh_endprologue
	movq	%rcx, 16(%rbp)	 # .result_ptr, .result_ptr
	movq	%rdx, 24(%rbp)	 # this, this
	movq	%r8, 32(%rbp)	 # __i, __i
 # c:\users\pluto\scoop\apps\gcc\current\include\c++\11.2.0\bits\stl_bvector.h:300:     { return *(*this + __i); }
	.loc 8 300 24
	leaq	-16(%rbp), %rax	 #, tmp82
	movq	32(%rbp), %rcx	 # __i, tmp83
	movq	24(%rbp), %rdx	 # this, tmp84
	movq	%rcx, %r8	 # tmp83,
	movq	%rax, %rcx	 # tmp82,
	call	_ZStplRKSt13_Bit_iteratorx	 #
 # c:\users\pluto\scoop\apps\gcc\current\include\c++\11.2.0\bits\stl_bvector.h:300:     { return *(*this + __i); }
	.loc 8 300 27
	movq	16(%rbp), %rax	 # .result_ptr, tmp85
	leaq	-16(%rbp), %rdx	 #, tmp86
	movq	%rax, %rcx	 # tmp85,
	call	_ZNKSt13_Bit_iteratordeEv	 #
 # c:\users\pluto\scoop\apps\gcc\current\include\c++\11.2.0\bits\stl_bvector.h:300:     { return *(*this + __i); }
	.loc 8 300 30
	movq	16(%rbp), %rax	 # .result_ptr,
	addq	$48, %rsp	 #,
	popq	%rbp	 #
.LCFI253:
	ret	
.LFE1877:
	.seh_endproc
	.section	.text$_ZStplRKSt13_Bit_iteratorx,"x"
	.linkonce discard
	.globl	_ZStplRKSt13_Bit_iteratorx
	.def	_ZStplRKSt13_Bit_iteratorx;	.scl	2;	.type	32;	.endef
	.seh_proc	_ZStplRKSt13_Bit_iteratorx
_ZStplRKSt13_Bit_iteratorx:
.LFB1878:
	.loc 8 303 5
	pushq	%rbp	 #
	.seh_pushreg	%rbp
.LCFI254:
	movq	%rsp, %rbp	 #,
	.seh_setframe	%rbp, 0
.LCFI255:
	subq	$32, %rsp	 #,
	.seh_stackalloc	32
	.seh_endprologue
	movq	%rcx, 16(%rbp)	 # .result_ptr, .result_ptr
	movq	%rdx, 24(%rbp)	 # __x, __x
	movq	%r8, 32(%rbp)	 # __n, __n
 # c:\users\pluto\scoop\apps\gcc\current\include\c++\11.2.0\bits\stl_bvector.h:305:       iterator __tmp = __x;
	.loc 8 305 16
	movq	16(%rbp), %rcx	 # .result_ptr, tmp82
	movq	24(%rbp), %rax	 # __x, tmp83
	movq	8(%rax), %rdx	 # MEM[(const struct _Bit_iterator &)__x_2(D)],
	movq	(%rax), %rax	 # MEM[(const struct _Bit_iterator &)__x_2(D)], tmp84
	movq	%rax, (%rcx)	 # tmp84, <retval>
	movq	%rdx, 8(%rcx)	 #, <retval>
 # c:\users\pluto\scoop\apps\gcc\current\include\c++\11.2.0\bits\stl_bvector.h:306:       __tmp += __n;
	.loc 8 306 16
	movq	32(%rbp), %rax	 # __n, tmp85
	movq	%rax, %rdx	 # tmp85,
	movq	16(%rbp), %rcx	 # .result_ptr,
	call	_ZNSt13_Bit_iteratorpLEx	 #
 # c:\users\pluto\scoop\apps\gcc\current\include\c++\11.2.0\bits\stl_bvector.h:307:       return __tmp;
	.loc 8 307 14
	nop	
 # c:\users\pluto\scoop\apps\gcc\current\include\c++\11.2.0\bits\stl_bvector.h:308:     }
	.loc 8 308 5
	movq	16(%rbp), %rax	 # .result_ptr,
	addq	$32, %rsp	 #,
	popq	%rbp	 #
.LCFI256:
	ret	
.LFE1878:
	.seh_endproc
	.section	.text$_ZNSt19_Bit_const_iteratorC1EPmj,"x"
	.linkonce discard
	.align 2
	.globl	_ZNSt19_Bit_const_iteratorC1EPmj
	.def	_ZNSt19_Bit_const_iteratorC1EPmj;	.scl	2;	.type	32;	.endef
	.seh_proc	_ZNSt19_Bit_const_iteratorC1EPmj
_ZNSt19_Bit_const_iteratorC1EPmj:
.LFB1886:
	.loc 8 336 5
	pushq	%rbp	 #
	.seh_pushreg	%rbp
.LCFI257:
	movq	%rsp, %rbp	 #,
	.seh_setframe	%rbp, 0
.LCFI258:
	subq	$32, %rsp	 #,
	.seh_stackalloc	32
	.seh_endprologue
	movq	%rcx, 16(%rbp)	 # this, this
	movq	%rdx, 24(%rbp)	 # __x, __x
	movl	%r8d, 32(%rbp)	 # __y, __y
.LBB31:
 # c:\users\pluto\scoop\apps\gcc\current\include\c++\11.2.0\bits\stl_bvector.h:337:     : _Bit_iterator_base(__x, __y) { }
	.loc 8 337 34
	movq	16(%rbp), %rax	 # this, _1
	movl	32(%rbp), %ecx	 # __y, tmp83
	movq	24(%rbp), %rdx	 # __x, tmp84
	movl	%ecx, %r8d	 # tmp83,
	movq	%rax, %rcx	 # _1,
	call	_ZNSt18_Bit_iterator_baseC2EPmj	 #
.LBE31:
 # c:\users\pluto\scoop\apps\gcc\current\include\c++\11.2.0\bits\stl_bvector.h:337:     : _Bit_iterator_base(__x, __y) { }
	.loc 8 337 38
	nop	
	addq	$32, %rsp	 #,
	popq	%rbp	 #
.LCFI259:
	ret	
.LFE1886:
	.seh_endproc
	.section	.text$_ZNSt19_Bit_const_iteratorC1ERKSt13_Bit_iterator,"x"
	.linkonce discard
	.align 2
	.globl	_ZNSt19_Bit_const_iteratorC1ERKSt13_Bit_iterator
	.def	_ZNSt19_Bit_const_iteratorC1ERKSt13_Bit_iterator;	.scl	2;	.type	32;	.endef
	.seh_proc	_ZNSt19_Bit_const_iteratorC1ERKSt13_Bit_iterator
_ZNSt19_Bit_const_iteratorC1ERKSt13_Bit_iterator:
.LFB1889:
	.loc 8 339 5
	pushq	%rbp	 #
	.seh_pushreg	%rbp
.LCFI260:
	movq	%rsp, %rbp	 #,
	.seh_setframe	%rbp, 0
.LCFI261:
	subq	$32, %rsp	 #,
	.seh_stackalloc	32
	.seh_endprologue
	movq	%rcx, 16(%rbp)	 # this, this
	movq	%rdx, 24(%rbp)	 # __x, __x
.LBB32:
 # c:\users\pluto\scoop\apps\gcc\current\include\c++\11.2.0\bits\stl_bvector.h:340:     : _Bit_iterator_base(__x._M_p, __x._M_offset) { }
	.loc 8 340 49
	movq	16(%rbp), %rax	 # this, _1
 # c:\users\pluto\scoop\apps\gcc\current\include\c++\11.2.0\bits\stl_bvector.h:340:     : _Bit_iterator_base(__x._M_p, __x._M_offset) { }
	.loc 8 340 40
	movq	24(%rbp), %rdx	 # __x, tmp85
	movl	8(%rdx), %ecx	 # __x_7(D)->D.34297._M_offset, _2
 # c:\users\pluto\scoop\apps\gcc\current\include\c++\11.2.0\bits\stl_bvector.h:340:     : _Bit_iterator_base(__x._M_p, __x._M_offset) { }
	.loc 8 340 30
	movq	24(%rbp), %rdx	 # __x, tmp86
	movq	(%rdx), %rdx	 # __x_7(D)->D.34297._M_p, _3
 # c:\users\pluto\scoop\apps\gcc\current\include\c++\11.2.0\bits\stl_bvector.h:340:     : _Bit_iterator_base(__x._M_p, __x._M_offset) { }
	.loc 8 340 49
	movl	%ecx, %r8d	 # _2,
	movq	%rax, %rcx	 # _1,
	call	_ZNSt18_Bit_iterator_baseC2EPmj	 #
.LBE32:
 # c:\users\pluto\scoop\apps\gcc\current\include\c++\11.2.0\bits\stl_bvector.h:340:     : _Bit_iterator_base(__x._M_p, __x._M_offset) { }
	.loc 8 340 53
	nop	
	addq	$32, %rsp	 #,
	popq	%rbp	 #
.LCFI262:
	ret	
.LFE1889:
	.seh_endproc
	.section	.text$_ZNKSt19_Bit_const_iterator13_M_const_castEv,"x"
	.linkonce discard
	.align 2
	.globl	_ZNKSt19_Bit_const_iterator13_M_const_castEv
	.def	_ZNKSt19_Bit_const_iterator13_M_const_castEv;	.scl	2;	.type	32;	.endef
	.seh_proc	_ZNKSt19_Bit_const_iterator13_M_const_castEv
_ZNKSt19_Bit_const_iterator13_M_const_castEv:
.LFB1890:
	.loc 8 343 5
	pushq	%rbp	 #
	.seh_pushreg	%rbp
.LCFI263:
	movq	%rsp, %rbp	 #,
	.seh_setframe	%rbp, 0
.LCFI264:
	subq	$32, %rsp	 #,
	.seh_stackalloc	32
	.seh_endprologue
	movq	%rcx, 16(%rbp)	 # .result_ptr, .result_ptr
	movq	%rdx, 24(%rbp)	 # this, this
 # c:\users\pluto\scoop\apps\gcc\current\include\c++\11.2.0\bits\stl_bvector.h:344:     { return _Bit_iterator(_M_p, _M_offset); }
	.loc 8 344 34
	movq	24(%rbp), %rax	 # this, tmp84
	movl	8(%rax), %edx	 # this_4(D)->D.34475._M_offset, _1
 # c:\users\pluto\scoop\apps\gcc\current\include\c++\11.2.0\bits\stl_bvector.h:344:     { return _Bit_iterator(_M_p, _M_offset); }
	.loc 8 344 28
	movq	24(%rbp), %rax	 # this, tmp85
	movq	(%rax), %rax	 # this_4(D)->D.34475._M_p, _2
 # c:\users\pluto\scoop\apps\gcc\current\include\c++\11.2.0\bits\stl_bvector.h:344:     { return _Bit_iterator(_M_p, _M_offset); }
	.loc 8 344 43
	movl	%edx, %r8d	 # _1,
	movq	%rax, %rdx	 # _2,
	movq	16(%rbp), %rcx	 # .result_ptr,
	call	_ZNSt13_Bit_iteratorC1EPmj	 #
 # c:\users\pluto\scoop\apps\gcc\current\include\c++\11.2.0\bits\stl_bvector.h:344:     { return _Bit_iterator(_M_p, _M_offset); }
	.loc 8 344 46
	movq	16(%rbp), %rax	 # .result_ptr,
	addq	$32, %rsp	 #,
	popq	%rbp	 #
.LCFI265:
	ret	
.LFE1890:
	.seh_endproc
	.section	.text$_ZNKSt19_Bit_const_iteratordeEv,"x"
	.linkonce discard
	.align 2
	.globl	_ZNKSt19_Bit_const_iteratordeEv
	.def	_ZNKSt19_Bit_const_iteratordeEv;	.scl	2;	.type	32;	.endef
	.seh_proc	_ZNKSt19_Bit_const_iteratordeEv
_ZNKSt19_Bit_const_iteratordeEv:
.LFB1891:
	.loc 8 347 5
	pushq	%rbp	 #
	.seh_pushreg	%rbp
.LCFI266:
	movq	%rsp, %rbp	 #,
	.seh_setframe	%rbp, 0
.LCFI267:
	subq	$48, %rsp	 #,
	.seh_stackalloc	48
	.seh_endprologue
	movq	%rcx, 16(%rbp)	 # this, this
 # c:\users\pluto\scoop\apps\gcc\current\include\c++\11.2.0\bits\stl_bvector.h:348:     { return _Bit_reference(_M_p, 1UL << _M_offset); }
	.loc 8 348 42
	movq	16(%rbp), %rax	 # this, tmp87
	movl	8(%rax), %eax	 # this_5(D)->D.34475._M_offset, _1
 # c:\users\pluto\scoop\apps\gcc\current\include\c++\11.2.0\bits\stl_bvector.h:348:     { return _Bit_reference(_M_p, 1UL << _M_offset); }
	.loc 8 348 14
	movl	$1, %edx	 #, tmp88
	movl	%eax, %ecx	 # _1, tmp95
	sall	%cl, %edx	 # tmp95, tmp88
	movl	%edx, %ecx	 # tmp88, _2
 # c:\users\pluto\scoop\apps\gcc\current\include\c++\11.2.0\bits\stl_bvector.h:348:     { return _Bit_reference(_M_p, 1UL << _M_offset); }
	.loc 8 348 29
	movq	16(%rbp), %rax	 # this, tmp89
	movq	(%rax), %rdx	 # this_5(D)->D.34475._M_p, _3
 # c:\users\pluto\scoop\apps\gcc\current\include\c++\11.2.0\bits\stl_bvector.h:348:     { return _Bit_reference(_M_p, 1UL << _M_offset); }
	.loc 8 348 14
	leaq	-16(%rbp), %rax	 #, tmp90
	movl	%ecx, %r8d	 # _2,
	movq	%rax, %rcx	 # tmp90,
	call	_ZNSt14_Bit_referenceC1EPmm	 #
 # c:\users\pluto\scoop\apps\gcc\current\include\c++\11.2.0\bits\stl_bvector.h:348:     { return _Bit_reference(_M_p, 1UL << _M_offset); }
	.loc 8 348 51
	leaq	-16(%rbp), %rax	 #, tmp91
	movq	%rax, %rcx	 # tmp91,
	call	_ZNKSt14_Bit_referencecvbEv	 #
 # c:\users\pluto\scoop\apps\gcc\current\include\c++\11.2.0\bits\stl_bvector.h:348:     { return _Bit_reference(_M_p, 1UL << _M_offset); }
	.loc 8 348 54
	addq	$48, %rsp	 #,
	popq	%rbp	 #
.LCFI268:
	ret	
.LFE1891:
	.seh_endproc
	.section	.text$_ZNSt19_Bit_const_iteratorppEv,"x"
	.linkonce discard
	.align 2
	.globl	_ZNSt19_Bit_const_iteratorppEv
	.def	_ZNSt19_Bit_const_iteratorppEv;	.scl	2;	.type	32;	.endef
	.seh_proc	_ZNSt19_Bit_const_iteratorppEv
_ZNSt19_Bit_const_iteratorppEv:
.LFB1892:
	.loc 8 351 5
	pushq	%rbp	 #
	.seh_pushreg	%rbp
.LCFI269:
	movq	%rsp, %rbp	 #,
	.seh_setframe	%rbp, 0
.LCFI270:
	subq	$32, %rsp	 #,
	.seh_stackalloc	32
	.seh_endprologue
	movq	%rcx, 16(%rbp)	 # this, this
 # c:\users\pluto\scoop\apps\gcc\current\include\c++\11.2.0\bits\stl_bvector.h:353:       _M_bump_up();
	.loc 8 353 17
	movq	16(%rbp), %rax	 # this, _1
	movq	%rax, %rcx	 # _1,
	call	_ZNSt18_Bit_iterator_base10_M_bump_upEv	 #
 # c:\users\pluto\scoop\apps\gcc\current\include\c++\11.2.0\bits\stl_bvector.h:354:       return *this;
	.loc 8 354 15
	movq	16(%rbp), %rax	 # this, _5
 # c:\users\pluto\scoop\apps\gcc\current\include\c++\11.2.0\bits\stl_bvector.h:355:     }
	.loc 8 355 5
	addq	$32, %rsp	 #,
	popq	%rbp	 #
.LCFI271:
	ret	
.LFE1892:
	.seh_endproc
	.section	.text$_ZNSt19_Bit_const_iteratorpLEx,"x"
	.linkonce discard
	.align 2
	.globl	_ZNSt19_Bit_const_iteratorpLEx
	.def	_ZNSt19_Bit_const_iteratorpLEx;	.scl	2;	.type	32;	.endef
	.seh_proc	_ZNSt19_Bit_const_iteratorpLEx
_ZNSt19_Bit_const_iteratorpLEx:
.LFB1896:
	.loc 8 381 5
	pushq	%rbp	 #
	.seh_pushreg	%rbp
.LCFI272:
	movq	%rsp, %rbp	 #,
	.seh_setframe	%rbp, 0
.LCFI273:
	subq	$32, %rsp	 #,
	.seh_stackalloc	32
	.seh_endprologue
	movq	%rcx, 16(%rbp)	 # this, this
	movq	%rdx, 24(%rbp)	 # __i, __i
 # c:\users\pluto\scoop\apps\gcc\current\include\c++\11.2.0\bits\stl_bvector.h:383:       _M_incr(__i);
	.loc 8 383 14
	movq	16(%rbp), %rax	 # this, _1
	movq	24(%rbp), %rdx	 # __i, tmp85
	movq	%rax, %rcx	 # _1,
	call	_ZNSt18_Bit_iterator_base7_M_incrEx	 #
 # c:\users\pluto\scoop\apps\gcc\current\include\c++\11.2.0\bits\stl_bvector.h:384:       return *this;
	.loc 8 384 15
	movq	16(%rbp), %rax	 # this, _6
 # c:\users\pluto\scoop\apps\gcc\current\include\c++\11.2.0\bits\stl_bvector.h:385:     }
	.loc 8 385 5
	addq	$32, %rsp	 #,
	popq	%rbp	 #
.LCFI274:
	ret	
.LFE1896:
	.seh_endproc
	.section	.text$_ZNKSt19_Bit_const_iteratorixEx,"x"
	.linkonce discard
	.align 2
	.globl	_ZNKSt19_Bit_const_iteratorixEx
	.def	_ZNKSt19_Bit_const_iteratorixEx;	.scl	2;	.type	32;	.endef
	.seh_proc	_ZNKSt19_Bit_const_iteratorixEx
_ZNKSt19_Bit_const_iteratorixEx:
.LFB1898:
	.loc 8 395 5
	pushq	%rbp	 #
	.seh_pushreg	%rbp
.LCFI275:
	movq	%rsp, %rbp	 #,
	.seh_setframe	%rbp, 0
.LCFI276:
	subq	$48, %rsp	 #,
	.seh_stackalloc	48
	.seh_endprologue
	movq	%rcx, 16(%rbp)	 # this, this
	movq	%rdx, 24(%rbp)	 # __i, __i
 # c:\users\pluto\scoop\apps\gcc\current\include\c++\11.2.0\bits\stl_bvector.h:396:     { return *(*this + __i); }
	.loc 8 396 24
	leaq	-16(%rbp), %rax	 #, tmp84
	movq	24(%rbp), %rdx	 # __i, tmp85
	movq	%rdx, %r8	 # tmp85,
	movq	16(%rbp), %rdx	 # this,
	movq	%rax, %rcx	 # tmp84,
	call	_ZStplRKSt19_Bit_const_iteratorx	 #
 # c:\users\pluto\scoop\apps\gcc\current\include\c++\11.2.0\bits\stl_bvector.h:396:     { return *(*this + __i); }
	.loc 8 396 14
	leaq	-16(%rbp), %rax	 #, tmp86
	movq	%rax, %rcx	 # tmp86,
	call	_ZNKSt19_Bit_const_iteratordeEv	 #
 # c:\users\pluto\scoop\apps\gcc\current\include\c++\11.2.0\bits\stl_bvector.h:396:     { return *(*this + __i); }
	.loc 8 396 30
	addq	$48, %rsp	 #,
	popq	%rbp	 #
.LCFI277:
	ret	
.LFE1898:
	.seh_endproc
	.section	.text$_ZStplRKSt19_Bit_const_iteratorx,"x"
	.linkonce discard
	.globl	_ZStplRKSt19_Bit_const_iteratorx
	.def	_ZStplRKSt19_Bit_const_iteratorx;	.scl	2;	.type	32;	.endef
	.seh_proc	_ZStplRKSt19_Bit_const_iteratorx
_ZStplRKSt19_Bit_const_iteratorx:
.LFB1899:
	.loc 8 399 5
	pushq	%rbp	 #
	.seh_pushreg	%rbp
.LCFI278:
	movq	%rsp, %rbp	 #,
	.seh_setframe	%rbp, 0
.LCFI279:
	subq	$32, %rsp	 #,
	.seh_stackalloc	32
	.seh_endprologue
	movq	%rcx, 16(%rbp)	 # .result_ptr, .result_ptr
	movq	%rdx, 24(%rbp)	 # __x, __x
	movq	%r8, 32(%rbp)	 # __n, __n
 # c:\users\pluto\scoop\apps\gcc\current\include\c++\11.2.0\bits\stl_bvector.h:401:       const_iterator __tmp = __x;
	.loc 8 401 22
	movq	16(%rbp), %rcx	 # .result_ptr, tmp82
	movq	24(%rbp), %rax	 # __x, tmp83
	movq	8(%rax), %rdx	 # MEM[(const struct _Bit_const_iterator &)__x_2(D)],
	movq	(%rax), %rax	 # MEM[(const struct _Bit_const_iterator &)__x_2(D)], tmp84
	movq	%rax, (%rcx)	 # tmp84, <retval>
	movq	%rdx, 8(%rcx)	 #, <retval>
 # c:\users\pluto\scoop\apps\gcc\current\include\c++\11.2.0\bits\stl_bvector.h:402:       __tmp += __n;
	.loc 8 402 16
	movq	32(%rbp), %rax	 # __n, tmp85
	movq	%rax, %rdx	 # tmp85,
	movq	16(%rbp), %rcx	 # .result_ptr,
	call	_ZNSt19_Bit_const_iteratorpLEx	 #
 # c:\users\pluto\scoop\apps\gcc\current\include\c++\11.2.0\bits\stl_bvector.h:403:       return __tmp;
	.loc 8 403 14
	nop	
 # c:\users\pluto\scoop\apps\gcc\current\include\c++\11.2.0\bits\stl_bvector.h:404:     }
	.loc 8 404 5
	movq	16(%rbp), %rax	 # .result_ptr,
	addq	$32, %rsp	 #,
	popq	%rbp	 #
.LCFI280:
	ret	
.LFE1899:
	.seh_endproc
	.section	.text$_ZSt14__fill_bvectorPmjjb,"x"
	.linkonce discard
	.globl	_ZSt14__fill_bvectorPmjjb
	.def	_ZSt14__fill_bvectorPmjjb;	.scl	2;	.type	32;	.endef
	.seh_proc	_ZSt14__fill_bvectorPmjjb
_ZSt14__fill_bvectorPmjjb:
.LFB1999:
	.loc 8 1332 3
	pushq	%rbp	 #
	.seh_pushreg	%rbp
.LCFI281:
	movq	%rsp, %rbp	 #,
	.seh_setframe	%rbp, 0
.LCFI282:
	subq	$16, %rsp	 #,
	.seh_stackalloc	16
	.seh_endprologue
	movq	%rcx, 16(%rbp)	 # __v, __v
	movl	%edx, 24(%rbp)	 # __first, __first
	movl	%r8d, 32(%rbp)	 # __last, __last
	movl	%r9d, %eax	 # __x, tmp88
	movb	%al, 40(%rbp)	 # tmp89, __x
 # c:\users\pluto\scoop\apps\gcc\current\include\c++\11.2.0\bits\stl_bvector.h:1335:     const _Bit_type __fmask = ~0ul << __first;
	.loc 8 1335 21
	movl	24(%rbp), %eax	 # __first, tmp90
	movl	$-1, %edx	 #, tmp91
	movl	%eax, %ecx	 # tmp90, tmp107
	sall	%cl, %edx	 # tmp107, tmp91
	movl	%edx, %eax	 # tmp91, tmp92
	movl	%eax, -4(%rbp)	 # tmp92, __fmask
 # c:\users\pluto\scoop\apps\gcc\current\include\c++\11.2.0\bits\stl_bvector.h:1336:     const _Bit_type __lmask = ~0ul >> (_S_word_bit - __last);
	.loc 8 1336 52
	movl	$32, %eax	 #, tmp93
	subl	32(%rbp), %eax	 # __last, _1
 # c:\users\pluto\scoop\apps\gcc\current\include\c++\11.2.0\bits\stl_bvector.h:1336:     const _Bit_type __lmask = ~0ul >> (_S_word_bit - __last);
	.loc 8 1336 21
	movl	$-1, %edx	 #, tmp94
	movl	%eax, %ecx	 # _1, tmp109
	shrl	%cl, %edx	 # tmp109, tmp94
	movl	%edx, %eax	 # tmp94, tmp95
	movl	%eax, -8(%rbp)	 # tmp95, __lmask
 # c:\users\pluto\scoop\apps\gcc\current\include\c++\11.2.0\bits\stl_bvector.h:1337:     const _Bit_type __mask = __fmask & __lmask;
	.loc 8 1337 21
	movl	-4(%rbp), %eax	 # __fmask, tmp99
	andl	-8(%rbp), %eax	 # __lmask, tmp98
	movl	%eax, -12(%rbp)	 # tmp98, __mask
 # c:\users\pluto\scoop\apps\gcc\current\include\c++\11.2.0\bits\stl_bvector.h:1339:     if (__x)
	.loc 8 1339 5
	cmpb	$0, 40(%rbp)	 #, __x
	je	.L202	 #,
 # c:\users\pluto\scoop\apps\gcc\current\include\c++\11.2.0\bits\stl_bvector.h:1340:       *__v |= __mask;
	.loc 8 1340 12
	movq	16(%rbp), %rax	 # __v, tmp100
	movl	(%rax), %eax	 # *__v_15(D), _2
	orl	-12(%rbp), %eax	 # __mask, _2
	movl	%eax, %edx	 # _2, _3
	movq	16(%rbp), %rax	 # __v, tmp101
	movl	%edx, (%rax)	 # _3, *__v_15(D)
 # c:\users\pluto\scoop\apps\gcc\current\include\c++\11.2.0\bits\stl_bvector.h:1343:   }
	.loc 8 1343 3
	jmp	.L204	 #
.L202:
 # c:\users\pluto\scoop\apps\gcc\current\include\c++\11.2.0\bits\stl_bvector.h:1342:       *__v &= ~__mask;
	.loc 8 1342 12
	movq	16(%rbp), %rax	 # __v, tmp102
	movl	(%rax), %edx	 # *__v_15(D), _4
 # c:\users\pluto\scoop\apps\gcc\current\include\c++\11.2.0\bits\stl_bvector.h:1342:       *__v &= ~__mask;
	.loc 8 1342 15
	movl	-12(%rbp), %eax	 # __mask, tmp103
	notl	%eax	 # _5
 # c:\users\pluto\scoop\apps\gcc\current\include\c++\11.2.0\bits\stl_bvector.h:1342:       *__v &= ~__mask;
	.loc 8 1342 12
	andl	%eax, %edx	 # _5, _6
	movq	16(%rbp), %rax	 # __v, tmp104
	movl	%edx, (%rax)	 # _6, *__v_15(D)
.L204:
 # c:\users\pluto\scoop\apps\gcc\current\include\c++\11.2.0\bits\stl_bvector.h:1343:   }
	.loc 8 1343 3
	nop	
	addq	$16, %rsp	 #,
	popq	%rbp	 #
.LCFI283:
	ret	
.LFE1999:
	.seh_endproc
	.section	.text$_ZSt9__fill_a1St13_Bit_iteratorS_RKb,"x"
	.linkonce discard
	.globl	_ZSt9__fill_a1St13_Bit_iteratorS_RKb
	.def	_ZSt9__fill_a1St13_Bit_iteratorS_RKb;	.scl	2;	.type	32;	.endef
	.seh_proc	_ZSt9__fill_a1St13_Bit_iteratorS_RKb
_ZSt9__fill_a1St13_Bit_iteratorS_RKb:
.LFB2000:
	.loc 8 1348 3
	pushq	%rbp	 #
	.seh_pushreg	%rbp
.LCFI284:
	pushq	%rsi	 #
	.seh_pushreg	%rsi
.LCFI285:
	pushq	%rbx	 #
	.seh_pushreg	%rbx
.LCFI286:
	subq	$48, %rsp	 #,
	.seh_stackalloc	48
.LCFI287:
	leaq	48(%rsp), %rbp	 #,
	.seh_setframe	%rbp, 48
.LCFI288:
	.seh_endprologue
	movq	%rcx, %rbx	 #, tmp106
	movq	%rdx, %rsi	 #, tmp107
	movq	%r8, 48(%rbp)	 # __x, __x
.LBB33:
 # c:\users\pluto\scoop\apps\gcc\current\include\c++\11.2.0\bits\stl_bvector.h:1351:     if (__first._M_p != __last._M_p)
	.loc 8 1351 17
	movq	(%rbx), %rdx	 # __first.D.34297._M_p, _1
 # c:\users\pluto\scoop\apps\gcc\current\include\c++\11.2.0\bits\stl_bvector.h:1351:     if (__first._M_p != __last._M_p)
	.loc 8 1351 32
	movq	(%rsi), %rax	 # __last.D.34297._M_p, _2
 # c:\users\pluto\scoop\apps\gcc\current\include\c++\11.2.0\bits\stl_bvector.h:1351:     if (__first._M_p != __last._M_p)
	.loc 8 1351 5
	cmpq	%rax, %rdx	 # _2, _1
	je	.L206	 #,
.LBB34:
 # c:\users\pluto\scoop\apps\gcc\current\include\c++\11.2.0\bits\stl_bvector.h:1353: 	_Bit_type* __first_p = __first._M_p;
	.loc 8 1353 13
	movq	(%rbx), %rax	 # __first.D.34297._M_p, tmp108
	movq	%rax, -8(%rbp)	 # tmp108, __first_p
 # c:\users\pluto\scoop\apps\gcc\current\include\c++\11.2.0\bits\stl_bvector.h:1354: 	if (__first._M_offset != 0)
	.loc 8 1354 14
	movl	8(%rbx), %eax	 # __first.D.34297._M_offset, _3
 # c:\users\pluto\scoop\apps\gcc\current\include\c++\11.2.0\bits\stl_bvector.h:1354: 	if (__first._M_offset != 0)
	.loc 8 1354 2
	testl	%eax, %eax	 # _3
	je	.L207	 #,
 # c:\users\pluto\scoop\apps\gcc\current\include\c++\11.2.0\bits\stl_bvector.h:1355: 	  __fill_bvector(__first_p++, __first._M_offset, _S_word_bit, __x);
	.loc 8 1355 64
	movq	48(%rbp), %rax	 # __x, tmp109
	movzbl	(%rax), %eax	 # *__x_29(D), _4
 # c:\users\pluto\scoop\apps\gcc\current\include\c++\11.2.0\bits\stl_bvector.h:1355: 	  __fill_bvector(__first_p++, __first._M_offset, _S_word_bit, __x);
	.loc 8 1355 18
	movzbl	%al, %r8d	 # _4, _5
	movl	8(%rbx), %edx	 # __first.D.34297._M_offset, _6
	movq	-8(%rbp), %rax	 # __first_p, __first_p.36_7
	leaq	4(%rax), %rcx	 #, tmp110
	movq	%rcx, -8(%rbp)	 # tmp110, __first_p
	movl	%r8d, %r9d	 # _5,
	movl	$32, %r8d	 #,
	movq	%rax, %rcx	 # __first_p.36_7,
	call	_ZSt14__fill_bvectorPmjjb	 #
.L207:
 # c:\users\pluto\scoop\apps\gcc\current\include\c++\11.2.0\bits\stl_bvector.h:1358: 			 (__last._M_p - __first_p) * sizeof(_Bit_type));
	.loc 8 1358 13
	movq	(%rsi), %rax	 # __last.D.34297._M_p, _8
 # c:\users\pluto\scoop\apps\gcc\current\include\c++\11.2.0\bits\stl_bvector.h:1358: 			 (__last._M_p - __first_p) * sizeof(_Bit_type));
	.loc 8 1358 18
	subq	-8(%rbp), %rax	 # __first_p, _9
 # c:\users\pluto\scoop\apps\gcc\current\include\c++\11.2.0\bits\stl_bvector.h:1357: 	__builtin_memset(__first_p, __x ? ~0 : 0,
	.loc 8 1357 18
	movq	%rax, %rcx	 # _9, _10
 # c:\users\pluto\scoop\apps\gcc\current\include\c++\11.2.0\bits\stl_bvector.h:1357: 	__builtin_memset(__first_p, __x ? ~0 : 0,
	.loc 8 1357 30
	movq	48(%rbp), %rax	 # __x, tmp111
	movzbl	(%rax), %eax	 # *__x_29(D), _11
 # c:\users\pluto\scoop\apps\gcc\current\include\c++\11.2.0\bits\stl_bvector.h:1357: 	__builtin_memset(__first_p, __x ? ~0 : 0,
	.loc 8 1357 18
	testb	%al, %al	 # _11
	je	.L208	 #,
 # c:\users\pluto\scoop\apps\gcc\current\include\c++\11.2.0\bits\stl_bvector.h:1357: 	__builtin_memset(__first_p, __x ? ~0 : 0,
	.loc 8 1357 18 is_stmt 0 discriminator 1
	movl	$-1, %edx	 #, iftmp.37_25
	jmp	.L209	 #
.L208:
 # c:\users\pluto\scoop\apps\gcc\current\include\c++\11.2.0\bits\stl_bvector.h:1357: 	__builtin_memset(__first_p, __x ? ~0 : 0,
	.loc 8 1357 18 discriminator 2
	movl	$0, %edx	 #, iftmp.37_25
.L209:
 # c:\users\pluto\scoop\apps\gcc\current\include\c++\11.2.0\bits\stl_bvector.h:1357: 	__builtin_memset(__first_p, __x ? ~0 : 0,
	.loc 8 1357 18 discriminator 4
	movq	-8(%rbp), %rax	 # __first_p, tmp113
	movq	%rcx, %r8	 # _10,
	movq	%rax, %rcx	 # tmp113,
	call	memset	 #
 # c:\users\pluto\scoop\apps\gcc\current\include\c++\11.2.0\bits\stl_bvector.h:1360: 	if (__last._M_offset != 0)
	.loc 8 1360 13 is_stmt 1 discriminator 4
	movl	8(%rsi), %eax	 # __last.D.34297._M_offset, _12
 # c:\users\pluto\scoop\apps\gcc\current\include\c++\11.2.0\bits\stl_bvector.h:1360: 	if (__last._M_offset != 0)
	.loc 8 1360 2 discriminator 4
	testl	%eax, %eax	 # _12
	je	.L211	 #,
 # c:\users\pluto\scoop\apps\gcc\current\include\c++\11.2.0\bits\stl_bvector.h:1361: 	  __fill_bvector(__last._M_p, 0, __last._M_offset, __x);
	.loc 8 1361 53
	movq	48(%rbp), %rax	 # __x, tmp114
	movzbl	(%rax), %eax	 # *__x_29(D), _13
 # c:\users\pluto\scoop\apps\gcc\current\include\c++\11.2.0\bits\stl_bvector.h:1361: 	  __fill_bvector(__last._M_p, 0, __last._M_offset, __x);
	.loc 8 1361 18
	movzbl	%al, %ecx	 # _13, _14
	movl	8(%rsi), %edx	 # __last.D.34297._M_offset, _15
	movq	(%rsi), %rax	 # __last.D.34297._M_p, _16
	movl	%ecx, %r9d	 # _14,
	movl	%edx, %r8d	 # _15,
	movl	$0, %edx	 #,
	movq	%rax, %rcx	 # _16,
	call	_ZSt14__fill_bvectorPmjjb	 #
.LBE34:
.LBE33:
 # c:\users\pluto\scoop\apps\gcc\current\include\c++\11.2.0\bits\stl_bvector.h:1365:   }
	.loc 8 1365 3
	jmp	.L211	 #
.L206:
.LBB35:
 # c:\users\pluto\scoop\apps\gcc\current\include\c++\11.2.0\bits\stl_bvector.h:1363:     else if (__first._M_offset != __last._M_offset)
	.loc 8 1363 22
	movl	8(%rbx), %edx	 # __first.D.34297._M_offset, _17
 # c:\users\pluto\scoop\apps\gcc\current\include\c++\11.2.0\bits\stl_bvector.h:1363:     else if (__first._M_offset != __last._M_offset)
	.loc 8 1363 42
	movl	8(%rsi), %eax	 # __last.D.34297._M_offset, _18
 # c:\users\pluto\scoop\apps\gcc\current\include\c++\11.2.0\bits\stl_bvector.h:1363:     else if (__first._M_offset != __last._M_offset)
	.loc 8 1363 10
	cmpl	%eax, %edx	 # _18, _17
	je	.L211	 #,
 # c:\users\pluto\scoop\apps\gcc\current\include\c++\11.2.0\bits\stl_bvector.h:1364:       __fill_bvector(__first._M_p, __first._M_offset, __last._M_offset, __x);
	.loc 8 1364 73
	movq	48(%rbp), %rax	 # __x, tmp115
	movzbl	(%rax), %eax	 # *__x_29(D), _19
 # c:\users\pluto\scoop\apps\gcc\current\include\c++\11.2.0\bits\stl_bvector.h:1364:       __fill_bvector(__first._M_p, __first._M_offset, __last._M_offset, __x);
	.loc 8 1364 21
	movzbl	%al, %r8d	 # _19, _20
	movl	8(%rsi), %ecx	 # __last.D.34297._M_offset, _21
	movl	8(%rbx), %edx	 # __first.D.34297._M_offset, _22
	movq	(%rbx), %rax	 # __first.D.34297._M_p, _23
	movl	%r8d, %r9d	 # _20,
	movl	%ecx, %r8d	 # _21,
	movq	%rax, %rcx	 # _23,
	call	_ZSt14__fill_bvectorPmjjb	 #
.L211:
.LBE35:
 # c:\users\pluto\scoop\apps\gcc\current\include\c++\11.2.0\bits\stl_bvector.h:1365:   }
	.loc 8 1365 3
	nop	
	addq	$48, %rsp	 #,
	popq	%rbx	 #
.LCFI289:
	popq	%rsi	 #
.LCFI290:
	popq	%rbp	 #
.LCFI291:
	ret	
.LFE2000:
	.seh_endproc
	.section	.text$_ZSt3minIyERKT_S2_S2_,"x"
	.linkonce discard
	.globl	_ZSt3minIyERKT_S2_S2_
	.def	_ZSt3minIyERKT_S2_S2_;	.scl	2;	.type	32;	.endef
	.seh_proc	_ZSt3minIyERKT_S2_S2_
_ZSt3minIyERKT_S2_S2_:
.LFB4173:
	.loc 3 230 5
	pushq	%rbp	 #
	.seh_pushreg	%rbp
.LCFI292:
	movq	%rsp, %rbp	 #,
	.seh_setframe	%rbp, 0
.LCFI293:
	.seh_endprologue
	movq	%rcx, 16(%rbp)	 # __a, __a
	movq	%rdx, 24(%rbp)	 # __b, __b
 # c:\users\pluto\scoop\apps\gcc\current\include\c++\11.2.0\bits\stl_algobase.h:235:       if (__b < __a)
	.loc 3 235 15
	movq	24(%rbp), %rax	 # __b, tmp86
	movq	(%rax), %rdx	 # *__b_5(D), _1
	movq	16(%rbp), %rax	 # __a, tmp87
	movq	(%rax), %rax	 # *__a_6(D), _2
 # c:\users\pluto\scoop\apps\gcc\current\include\c++\11.2.0\bits\stl_algobase.h:235:       if (__b < __a)
	.loc 3 235 7
	cmpq	%rax, %rdx	 # _2, _1
	jnb	.L213	 #,
 # c:\users\pluto\scoop\apps\gcc\current\include\c++\11.2.0\bits\stl_algobase.h:236: 	return __b;
	.loc 3 236 9
	movq	24(%rbp), %rax	 # __b, _3
	jmp	.L214	 #
.L213:
 # c:\users\pluto\scoop\apps\gcc\current\include\c++\11.2.0\bits\stl_algobase.h:237:       return __a;
	.loc 3 237 14
	movq	16(%rbp), %rax	 # __a, _3
.L214:
 # c:\users\pluto\scoop\apps\gcc\current\include\c++\11.2.0\bits\stl_algobase.h:238:     }
	.loc 3 238 5
	popq	%rbp	 #
.LCFI294:
	ret	
.LFE4173:
	.seh_endproc
	.section .rdata,"dr"
_ZN6__pstl9execution2v1L3seqE:
	.space 1
_ZN6__pstl9execution2v1L3parE:
	.space 1
_ZN6__pstl9execution2v1L9par_unseqE:
	.space 1
_ZN6__pstl9execution2v1L5unseqE:
	.space 1
	.align 4
_ZL4XMAX:
	.long	1153957888
	.align 4
_ZL4YMAX:
	.long	1147207680
	.globl	mpo
	.bss
	.align 8
mpo:
	.space 8
	.globl	wmpo
	.align 8
wmpo:
	.space 8
	.globl	mdt
	.align 8
mdt:
	.space 8
	.globl	dt
	.align 4
dt:
	.space 4
	.globl	actreg
	.data
	.align 16
actreg:
	.quad	_Z10f_ACT_NULLR5Blorb
	.quad	_Z18f_ACT_MOVE_FORWARDR5Blorb
	.section .rdata,"dr"
	.align 8
_ZL8act_outc:
	.long	1
	.long	1
	.section	.text$_ZN7OptimapIhiED1Ev,"x"
	.linkonce discard
	.align 2
	.globl	_ZN7OptimapIhiED1Ev
	.def	_ZN7OptimapIhiED1Ev;	.scl	2;	.type	32;	.endef
	.seh_proc	_ZN7OptimapIhiED1Ev
_ZN7OptimapIhiED1Ev:
.LFB4654:
	.file 9 "optimap.hpp"
	.loc 9 7 8
	pushq	%rbp	 #
	.seh_pushreg	%rbp
.LCFI295:
	movq	%rsp, %rbp	 #,
	.seh_setframe	%rbp, 0
.LCFI296:
	subq	$32, %rsp	 #,
	.seh_stackalloc	32
	.seh_endprologue
	movq	%rcx, 16(%rbp)	 # this, this
.LBB36:
 # optimap.hpp:7: struct Optimap {
	.loc 9 7 8
	movq	16(%rbp), %rax	 # this, tmp84
	addq	$40, %rax	 #, _1
	movq	%rax, %rcx	 # _1,
	call	_ZNSt6vectorIiSaIiEED1Ev	 #
	movq	16(%rbp), %rax	 # this, _2
	movq	%rax, %rcx	 # _2,
	call	_ZNSt6vectorIbSaIbEED1Ev	 #
.LBE36:
	nop	
	addq	$32, %rsp	 #,
	popq	%rbp	 #
.LCFI297:
	ret	
.LFE4654:
	.seh_endproc
	.section	.text$_ZN3DDT4NodeC1E6Action,"x"
	.linkonce discard
	.align 2
	.globl	_ZN3DDT4NodeC1E6Action
	.def	_ZN3DDT4NodeC1E6Action;	.scl	2;	.type	32;	.endef
	.seh_proc	_ZN3DDT4NodeC1E6Action
_ZN3DDT4NodeC1E6Action:
.LFB4659:
	.file 10 "main.cpp"
	.loc 10 60 3
	pushq	%rbp	 #
	.seh_pushreg	%rbp
.LCFI298:
	pushq	%rbx	 #
	.seh_pushreg	%rbx
.LCFI299:
	subq	$40, %rsp	 #,
	.seh_stackalloc	40
.LCFI300:
	leaq	32(%rsp), %rbp	 #,
	.seh_setframe	%rbp, 32
.LCFI301:
	.seh_endprologue
	movq	%rcx, 32(%rbp)	 # this, this
	movl	%edx, 40(%rbp)	 # act, act
.LBB37:
 # main.cpp:60: 		Node(Action act) { next.init(act_outc[act]); action = act; }
	.loc 10 60 20
	movq	32(%rbp), %rax	 # this, tmp88
	addq	$8, %rax	 #, _1
	movq	%rax, %rcx	 # _1,
.LEHB0:
	call	_ZN7OptimapIhiEC1Ev	 #
.LEHE0:
 # main.cpp:60: 		Node(Action act) { next.init(act_outc[act]); action = act; }
	.loc 10 60 31
	movq	32(%rbp), %rax	 # this, tmp89
	leaq	8(%rax), %rcx	 #, _2
 # main.cpp:60: 		Node(Action act) { next.init(act_outc[act]); action = act; }
	.loc 10 60 41
	movl	40(%rbp), %eax	 # act, act.8_3
 # main.cpp:60: 		Node(Action act) { next.init(act_outc[act]); action = act; }
	.loc 10 60 44
	cltq
	leaq	0(,%rax,4), %rdx	 #, tmp91
	leaq	_ZL8act_outc(%rip), %rax	 #, tmp92
	movl	(%rdx,%rax), %eax	 # act_outc[act.8_3], _4
 # main.cpp:60: 		Node(Action act) { next.init(act_outc[act]); action = act; }
	.loc 10 60 31
	movl	%eax, %edx	 # _4,
.LEHB1:
	call	_ZN7OptimapIhiE4initEi	 #
.LEHE1:
 # main.cpp:60: 		Node(Action act) { next.init(act_outc[act]); action = act; }
	.loc 10 60 55 discriminator 2
	movq	32(%rbp), %rax	 # this, tmp93
	movl	40(%rbp), %edx	 # act, tmp94
	movl	%edx, (%rax)	 # tmp94, this_7(D)->action
.LBE37:
 # main.cpp:60: 		Node(Action act) { next.init(act_outc[act]); action = act; }
	.loc 10 60 62 discriminator 2
	jmp	.L219	 #
.L218:
.LBB38:
 # main.cpp:60: 		Node(Action act) { next.init(act_outc[act]); action = act; }
	.loc 10 60 62 is_stmt 0
	movq	%rax, %rbx	 #, tmp96
	movq	32(%rbp), %rax	 # this, tmp95
	addq	$8, %rax	 #, _5
	movq	%rax, %rcx	 # _5,
	call	_ZN7OptimapIhiED1Ev	 #
	movq	%rbx, %rax	 # tmp96, D.129127
	movq	%rax, %rcx	 # D.129127,
.LEHB2:
	call	_Unwind_Resume	 #
	nop	
.LEHE2:
.L219:
.LBE38:
	addq	$40, %rsp	 #,
	popq	%rbx	 #
.LCFI302:
	popq	%rbp	 #
.LCFI303:
	ret	
.LFE4659:
	.def	__gxx_personality_seh0;	.scl	2;	.type	32;	.endef
	.seh_handler	__gxx_personality_seh0, @unwind, @except
	.seh_handlerdata
.LLSDA4659:
	.byte	0xff
	.byte	0xff
	.byte	0x1
	.uleb128 .LLSDACSE4659-.LLSDACSB4659
.LLSDACSB4659:
	.uleb128 .LEHB0-.LFB4659
	.uleb128 .LEHE0-.LEHB0
	.uleb128 0
	.uleb128 0
	.uleb128 .LEHB1-.LFB4659
	.uleb128 .LEHE1-.LEHB1
	.uleb128 .L218-.LFB4659
	.uleb128 0
	.uleb128 .LEHB2-.LFB4659
	.uleb128 .LEHE2-.LEHB2
	.uleb128 0
	.uleb128 0
.LLSDACSE4659:
	.section	.text$_ZN3DDT4NodeC1E6Action,"x"
	.linkonce discard
	.seh_endproc
	.section	.text$_ZN3DDT4Node7addPathEhi,"x"
	.linkonce discard
	.align 2
	.globl	_ZN3DDT4Node7addPathEhi
	.def	_ZN3DDT4Node7addPathEhi;	.scl	2;	.type	32;	.endef
	.seh_proc	_ZN3DDT4Node7addPathEhi
_ZN3DDT4Node7addPathEhi:
.LFB4660:
	.loc 10 62 8 is_stmt 1
	pushq	%rbp	 #
	.seh_pushreg	%rbp
.LCFI304:
	pushq	%rbx	 #
	.seh_pushreg	%rbx
.LCFI305:
	subq	$40, %rsp	 #,
	.seh_stackalloc	40
.LCFI306:
	leaq	32(%rsp), %rbp	 #,
	.seh_setframe	%rbp, 32
.LCFI307:
	.seh_endprologue
	movq	%rcx, 32(%rbp)	 # this, this
	movl	%edx, %eax	 # aout, tmp86
	movl	%r8d, 48(%rbp)	 # other, other
	movb	%al, 40(%rbp)	 # tmp87, aout
 # main.cpp:63: 			next[aout] = other;
	.loc 10 63 15
	movl	48(%rbp), %ebx	 # other, other.109_1
 # main.cpp:63: 			next[aout] = other;
	.loc 10 63 13
	movq	32(%rbp), %rax	 # this, tmp88
	leaq	8(%rax), %rcx	 #, _2
	movzbl	40(%rbp), %eax	 # aout, _3
	movl	%eax, %edx	 # _3,
	call	_ZN7OptimapIhiEixEh	 #
 # main.cpp:63: 			next[aout] = other;
	.loc 10 63 15
	movl	%ebx, (%rax)	 # other.109_1, *_4
 # main.cpp:64: 		}
	.loc 10 64 3
	nop	
	addq	$40, %rsp	 #,
	popq	%rbx	 #
.LCFI308:
	popq	%rbp	 #
.LCFI309:
	ret	
.LFE4660:
	.seh_endproc
	.section	.text$_ZN3DDT4Node11getNextNodeER5BlorbN9__gnu_cxx17__normal_iteratorIPS0_St6vectorIS0_SaIS0_EEEE,"x"
	.linkonce discard
	.align 2
	.globl	_ZN3DDT4Node11getNextNodeER5BlorbN9__gnu_cxx17__normal_iteratorIPS0_St6vectorIS0_SaIS0_EEEE
	.def	_ZN3DDT4Node11getNextNodeER5BlorbN9__gnu_cxx17__normal_iteratorIPS0_St6vectorIS0_SaIS0_EEEE;	.scl	2;	.type	32;	.endef
	.seh_proc	_ZN3DDT4Node11getNextNodeER5BlorbN9__gnu_cxx17__normal_iteratorIPS0_St6vectorIS0_SaIS0_EEEE
_ZN3DDT4Node11getNextNodeER5BlorbN9__gnu_cxx17__normal_iteratorIPS0_St6vectorIS0_SaIS0_EEEE:
.LFB4661:
	.loc 10 66 13
	pushq	%rbp	 #
	.seh_pushreg	%rbp
.LCFI310:
	movq	%rsp, %rbp	 #,
	.seh_setframe	%rbp, 0
.LCFI311:
	subq	$48, %rsp	 #,
	.seh_stackalloc	48
	.seh_endprologue
	movq	%rcx, 16(%rbp)	 # this, this
	movq	%rdx, 24(%rbp)	 # data, data
	movq	%r8, 32(%rbp)	 # begin, begin
 # main.cpp:67: 			ActionOutput output = actreg[action](data);
	.loc 10 67 33
	movq	16(%rbp), %rax	 # this, tmp94
	movl	(%rax), %eax	 # this_12(D)->action, _1
 # main.cpp:67: 			ActionOutput output = actreg[action](data);
	.loc 10 67 39
	cltq
	leaq	0(,%rax,8), %rdx	 #, tmp96
	leaq	actreg(%rip), %rax	 #, tmp97
	movq	(%rdx,%rax), %rdx	 # actreg[_2], _3
 # main.cpp:67: 			ActionOutput output = actreg[action](data);
	.loc 10 67 40
	movq	24(%rbp), %rax	 # data, tmp98
	movq	%rax, %rcx	 # tmp98,
	call	*%rdx	 # _3
.LVL1:
	movb	%al, -1(%rbp)	 # _15, output
 # main.cpp:68: 			if (next.contains(output)) {
	.loc 10 68 21
	movq	16(%rbp), %rax	 # this, tmp99
	leaq	8(%rax), %rcx	 #, _4
	movzbl	-1(%rbp), %eax	 # output, _5
	movl	%eax, %edx	 # _5,
	call	_ZNK7OptimapIhiE8containsEh	 #
 # main.cpp:68: 			if (next.contains(output)) {
	.loc 10 68 4
	testb	%al, %al	 # _18
	je	.L222	 #,
 # main.cpp:69: 				return next[output];
	.loc 10 69 23
	movq	16(%rbp), %rax	 # this, tmp100
	leaq	8(%rax), %rcx	 #, _6
	movzbl	-1(%rbp), %eax	 # output, _7
	movl	%eax, %edx	 # _7,
	call	_ZN7OptimapIhiEixEh	 #
	movl	(%rax), %eax	 # *_8, _9
	jmp	.L223	 #
.L222:
 # main.cpp:71: 				return -1;
	.loc 10 71 13
	movl	$-1, %eax	 #, _9
.L223:
 # main.cpp:73: 		}
	.loc 10 73 3
	addq	$48, %rsp	 #,
	popq	%rbp	 #
.LCFI312:
	ret	
.LFE4661:
	.seh_endproc
	.section .rdata,"dr"
.LC15:
	.ascii "%i\0"
	.section	.text$_ZN3DDT4Node4drawE7Vector2,"x"
	.linkonce discard
	.align 2
	.globl	_ZN3DDT4Node4drawE7Vector2
	.def	_ZN3DDT4Node4drawE7Vector2;	.scl	2;	.type	32;	.endef
	.seh_proc	_ZN3DDT4Node4drawE7Vector2
_ZN3DDT4Node4drawE7Vector2:
.LFB4662:
	.loc 10 75 8
	pushq	%rbp	 #
	.seh_pushreg	%rbp
.LCFI313:
	pushq	%rdi	 #
	.seh_pushreg	%rdi
.LCFI314:
	pushq	%rsi	 #
	.seh_pushreg	%rsi
.LCFI315:
	pushq	%rbx	 #
	.seh_pushreg	%rbx
.LCFI316:
	subq	$56, %rsp	 #,
	.seh_stackalloc	56
.LCFI317:
	leaq	48(%rsp), %rbp	 #,
	.seh_setframe	%rbp, 48
.LCFI318:
	.seh_endprologue
	movq	%rcx, 48(%rbp)	 # this, this
	movq	%rdx, 56(%rbp)	 # pos, pos
 # main.cpp:76: 			DrawCircleV(pos, 20.f, WHITE);
	.loc 10 76 15
	movb	$-1, %al	 #, D.128556
	movl	$-1, %edx	 #, tmp93
	movb	%dl, %ah	 # tmp93, D.128556
	orl	$16711680, %eax	 #, tmp95
	orl	$-16777216, %eax	 #, tmp97
	movq	56(%rbp), %rdx	 # pos, tmp98
	movl	%eax, %r8d	 # D.128556,
	movss	.LC13(%rip), %xmm1	 #,
	movq	%rdx, %rcx	 # tmp98,
	call	DrawCircleV	 #
 # main.cpp:77: 			DrawText(TextFormat("%i", (int)action), pos.x - 15, pos.y - 15, 30, BLACK);
	.loc 10 77 12
	movb	$0, %bl	 #, D.128557
	movl	$0, %eax	 #, tmp99
	movb	%al, %bh	 # tmp99, D.128557
	movl	%ebx, %eax	 # D.128557, D.128557
	andl	$-16711681, %eax	 #, D.128557
	movl	%eax, %ebx	 # tmp101, D.128557
	movl	%ebx, %eax	 # D.128557, D.128557
	orl	$-16777216, %eax	 #, D.128557
	movl	%eax, %ebx	 # tmp103, D.128557
 # main.cpp:77: 			DrawText(TextFormat("%i", (int)action), pos.x - 15, pos.y - 15, 30, BLACK);
	.loc 10 77 60
	movss	60(%rbp), %xmm0	 # pos.y, _1
 # main.cpp:77: 			DrawText(TextFormat("%i", (int)action), pos.x - 15, pos.y - 15, 30, BLACK);
	.loc 10 77 62
	movss	.LC14(%rip), %xmm1	 #, tmp104
	subss	%xmm1, %xmm0	 # tmp104, _2
 # main.cpp:77: 			DrawText(TextFormat("%i", (int)action), pos.x - 15, pos.y - 15, 30, BLACK);
	.loc 10 77 12
	cvttss2sil	%xmm0, %edi	 # _2, _3
 # main.cpp:77: 			DrawText(TextFormat("%i", (int)action), pos.x - 15, pos.y - 15, 30, BLACK);
	.loc 10 77 48
	movss	56(%rbp), %xmm0	 # pos.x, _4
 # main.cpp:77: 			DrawText(TextFormat("%i", (int)action), pos.x - 15, pos.y - 15, 30, BLACK);
	.loc 10 77 50
	movss	.LC14(%rip), %xmm1	 #, tmp105
	subss	%xmm1, %xmm0	 # tmp105, _5
 # main.cpp:77: 			DrawText(TextFormat("%i", (int)action), pos.x - 15, pos.y - 15, 30, BLACK);
	.loc 10 77 12
	cvttss2sil	%xmm0, %esi	 # _5, _6
 # main.cpp:77: 			DrawText(TextFormat("%i", (int)action), pos.x - 15, pos.y - 15, 30, BLACK);
	.loc 10 77 35
	movq	48(%rbp), %rax	 # this, tmp106
	movl	(%rax), %eax	 # this_20(D)->action, _7
 # main.cpp:77: 			DrawText(TextFormat("%i", (int)action), pos.x - 15, pos.y - 15, 30, BLACK);
	.loc 10 77 12
	movl	%eax, %edx	 # _8,
	leaq	.LC15(%rip), %rax	 #, tmp107
	movq	%rax, %rcx	 # tmp107,
	call	TextFormat	 #
	movl	%ebx, 32(%rsp)	 # D.128557,
	movl	$30, %r9d	 #,
	movl	%edi, %r8d	 # _3,
	movl	%esi, %edx	 # _6,
	movq	%rax, %rcx	 # _9,
	call	DrawText	 #
 # main.cpp:78: 		}
	.loc 10 78 3
	nop	
	addq	$56, %rsp	 #,
	popq	%rbx	 #
.LCFI319:
	popq	%rsi	 #
.LCFI320:
	popq	%rdi	 #
.LCFI321:
	popq	%rbp	 #
.LCFI322:
	ret	
.LFE4662:
	.seh_endproc
	.section	.text$_ZNSt12_Vector_baseIN3DDT4NodeESaIS1_EE12_Vector_implD1Ev,"x"
	.linkonce discard
	.align 2
	.globl	_ZNSt12_Vector_baseIN3DDT4NodeESaIS1_EE12_Vector_implD1Ev
	.def	_ZNSt12_Vector_baseIN3DDT4NodeESaIS1_EE12_Vector_implD1Ev;	.scl	2;	.type	32;	.endef
	.seh_proc	_ZNSt12_Vector_baseIN3DDT4NodeESaIS1_EE12_Vector_implD1Ev
_ZNSt12_Vector_baseIN3DDT4NodeESaIS1_EE12_Vector_implD1Ev:
.LFB4669:
	.file 11 "c:/users/pluto/scoop/apps/gcc/current/include/c++/11.2.0/bits/stl_vector.h"
	.loc 11 128 14
	pushq	%rbp	 #
	.seh_pushreg	%rbp
.LCFI323:
	movq	%rsp, %rbp	 #,
	.seh_setframe	%rbp, 0
.LCFI324:
	subq	$32, %rsp	 #,
	.seh_stackalloc	32
	.seh_endprologue
	movq	%rcx, 16(%rbp)	 # this, this
.LBB39:
 # c:\users\pluto\scoop\apps\gcc\current\include\c++\11.2.0\bits\stl_vector.h:128:       struct _Vector_impl
	.loc 11 128 14
	movq	16(%rbp), %rcx	 # this,
	call	_ZNSaIN3DDT4NodeEED2Ev	 #
.LBE39:
	nop	
	addq	$32, %rsp	 #,
	popq	%rbp	 #
.LCFI325:
	ret	
.LFE4669:
	.seh_endproc
	.section	.text$_ZNSt12_Vector_baseIN3DDT4NodeESaIS1_EEC2Ev,"x"
	.linkonce discard
	.align 2
	.globl	_ZNSt12_Vector_baseIN3DDT4NodeESaIS1_EEC2Ev
	.def	_ZNSt12_Vector_baseIN3DDT4NodeESaIS1_EEC2Ev;	.scl	2;	.type	32;	.endef
	.seh_proc	_ZNSt12_Vector_baseIN3DDT4NodeESaIS1_EEC2Ev
_ZNSt12_Vector_baseIN3DDT4NodeESaIS1_EEC2Ev:
.LFB4670:
	.loc 11 288 7
	pushq	%rbp	 #
	.seh_pushreg	%rbp
.LCFI326:
	movq	%rsp, %rbp	 #,
	.seh_setframe	%rbp, 0
.LCFI327:
	subq	$32, %rsp	 #,
	.seh_stackalloc	32
	.seh_endprologue
	movq	%rcx, 16(%rbp)	 # this, this
.LBB40:
 # c:\users\pluto\scoop\apps\gcc\current\include\c++\11.2.0\bits\stl_vector.h:288:       _Vector_base() = default;
	.loc 11 288 7
	movq	16(%rbp), %rax	 # this, _1
	movq	%rax, %rcx	 # _1,
	call	_ZNSt12_Vector_baseIN3DDT4NodeESaIS1_EE12_Vector_implC1Ev	 #
.LBE40:
	nop	
	addq	$32, %rsp	 #,
	popq	%rbp	 #
.LCFI328:
	ret	
.LFE4670:
	.seh_endproc
	.section	.text$_ZNSt6vectorIN3DDT4NodeESaIS1_EEC1Ev,"x"
	.linkonce discard
	.align 2
	.globl	_ZNSt6vectorIN3DDT4NodeESaIS1_EEC1Ev
	.def	_ZNSt6vectorIN3DDT4NodeESaIS1_EEC1Ev;	.scl	2;	.type	32;	.endef
	.seh_proc	_ZNSt6vectorIN3DDT4NodeESaIS1_EEC1Ev
_ZNSt6vectorIN3DDT4NodeESaIS1_EEC1Ev:
.LFB4673:
	.loc 11 487 7
	pushq	%rbp	 #
	.seh_pushreg	%rbp
.LCFI329:
	movq	%rsp, %rbp	 #,
	.seh_setframe	%rbp, 0
.LCFI330:
	subq	$32, %rsp	 #,
	.seh_stackalloc	32
	.seh_endprologue
	movq	%rcx, 16(%rbp)	 # this, this
.LBB41:
 # c:\users\pluto\scoop\apps\gcc\current\include\c++\11.2.0\bits\stl_vector.h:487:       vector() = default;
	.loc 11 487 7
	movq	16(%rbp), %rax	 # this, _1
	movq	%rax, %rcx	 # _1,
	call	_ZNSt12_Vector_baseIN3DDT4NodeESaIS1_EEC2Ev	 #
.LBE41:
	nop	
	addq	$32, %rsp	 #,
	popq	%rbp	 #
.LCFI331:
	ret	
.LFE4673:
	.seh_endproc
	.section	.text$_ZN3DDT4NodeD1Ev,"x"
	.linkonce discard
	.align 2
	.globl	_ZN3DDT4NodeD1Ev
	.def	_ZN3DDT4NodeD1Ev;	.scl	2;	.type	32;	.endef
	.seh_proc	_ZN3DDT4NodeD1Ev
_ZN3DDT4NodeD1Ev:
.LFB4676:
	.loc 10 50 9
	pushq	%rbp	 #
	.seh_pushreg	%rbp
.LCFI332:
	movq	%rsp, %rbp	 #,
	.seh_setframe	%rbp, 0
.LCFI333:
	subq	$32, %rsp	 #,
	.seh_stackalloc	32
	.seh_endprologue
	movq	%rcx, 16(%rbp)	 # this, this
.LBB42:
 # main.cpp:50: 	struct Node {
	.loc 10 50 9
	movq	16(%rbp), %rax	 # this, tmp83
	addq	$8, %rax	 #, _1
	movq	%rax, %rcx	 # _1,
	call	_ZN7OptimapIhiED1Ev	 #
.LBE42:
	nop	
	addq	$32, %rsp	 #,
	popq	%rbp	 #
.LCFI334:
	ret	
.LFE4676:
	.seh_endproc
	.section	.text$_ZN3DDTC1Ev,"x"
	.linkonce discard
	.align 2
	.globl	_ZN3DDTC1Ev
	.def	_ZN3DDTC1Ev;	.scl	2;	.type	32;	.endef
	.seh_proc	_ZN3DDTC1Ev
_ZN3DDTC1Ev:
.LFB4678:
	.loc 10 84 2
	pushq	%rbp	 #
	.seh_pushreg	%rbp
.LCFI335:
	pushq	%rbx	 #
	.seh_pushreg	%rbx
.LCFI336:
	subq	$120, %rsp	 #,
	.seh_stackalloc	120
.LCFI337:
	leaq	112(%rsp), %rbp	 #,
	.seh_setframe	%rbp, 112
.LCFI338:
	.seh_endprologue
	movq	%rcx, 32(%rbp)	 # this, this
.LBB43:
 # main.cpp:84: 	DDT() {
	.loc 10 84 8
	movq	32(%rbp), %rax	 # this, _1
	movq	%rax, %rcx	 # _1,
	call	_ZNSt6vectorIN3DDT4NodeESaIS1_EEC1Ev	 #
	movq	32(%rbp), %rax	 # this, tmp86
	movl	$0, 24(%rax)	 #, this_6(D)->current
 # main.cpp:85: 		nodes.push_back(Node(ACT_NULL));
	.loc 10 85 18
	movq	32(%rbp), %rbx	 # this, _2
 # main.cpp:85: 		nodes.push_back(Node(ACT_NULL));
	.loc 10 85 19
	leaq	-80(%rbp), %rax	 #, tmp87
	movl	$0, %edx	 #,
	movq	%rax, %rcx	 # tmp87,
.LEHB3:
	call	_ZN3DDT4NodeC1E6Action	 #
.LEHE3:
 # main.cpp:85: 		nodes.push_back(Node(ACT_NULL));
	.loc 10 85 18 discriminator 1
	leaq	-80(%rbp), %rax	 #, tmp88
	movq	%rax, %rdx	 # tmp88,
	movq	%rbx, %rcx	 # _2,
.LEHB4:
	call	_ZNSt6vectorIN3DDT4NodeESaIS1_EE9push_backEOS1_	 #
.LEHE4:
 # main.cpp:85: 		nodes.push_back(Node(ACT_NULL));
	.loc 10 85 19 discriminator 3
	leaq	-80(%rbp), %rax	 #, tmp89
	movq	%rax, %rcx	 # tmp89,
	call	_ZN3DDT4NodeD1Ev	 #
 # main.cpp:86: 		current = 0;
	.loc 10 86 11 discriminator 3
	movq	32(%rbp), %rax	 # this, tmp90
	movl	$0, 24(%rax)	 #, this_6(D)->current
.LBE43:
 # main.cpp:87: 	}
	.loc 10 87 2 discriminator 3
	jmp	.L234	 #
.L233:
.LBB44:
 # main.cpp:85: 		nodes.push_back(Node(ACT_NULL));
	.loc 10 85 19
	movq	%rax, %rbx	 #, tmp93
	leaq	-80(%rbp), %rax	 #, tmp91
	movq	%rax, %rcx	 # tmp91,
	call	_ZN3DDT4NodeD1Ev	 #
	jmp	.L231	 #
.L232:
 # main.cpp:87: 	}
	.loc 10 87 2
	movq	%rax, %rbx	 #, tmp92
.L231:
	movq	32(%rbp), %rax	 # this, _3
	movq	%rax, %rcx	 # _3,
	call	_ZNSt6vectorIN3DDT4NodeESaIS1_EED1Ev	 #
	movq	%rbx, %rax	 # tmp92, D.129129
	movq	%rax, %rcx	 # D.129129,
.LEHB5:
	call	_Unwind_Resume	 #
	nop	
.LEHE5:
.L234:
.LBE44:
	addq	$120, %rsp	 #,
	popq	%rbx	 #
.LCFI339:
	popq	%rbp	 #
.LCFI340:
	ret	
.LFE4678:
	.seh_handler	__gxx_personality_seh0, @unwind, @except
	.seh_handlerdata
.LLSDA4678:
	.byte	0xff
	.byte	0xff
	.byte	0x1
	.uleb128 .LLSDACSE4678-.LLSDACSB4678
.LLSDACSB4678:
	.uleb128 .LEHB3-.LFB4678
	.uleb128 .LEHE3-.LEHB3
	.uleb128 .L232-.LFB4678
	.uleb128 0
	.uleb128 .LEHB4-.LFB4678
	.uleb128 .LEHE4-.LEHB4
	.uleb128 .L233-.LFB4678
	.uleb128 0
	.uleb128 .LEHB5-.LFB4678
	.uleb128 .LEHE5-.LEHB5
	.uleb128 0
	.uleb128 0
.LLSDACSE4678:
	.section	.text$_ZN3DDTC1Ev,"x"
	.linkonce discard
	.seh_endproc
	.section	.text$_ZN3DDTC1ERKS_,"x"
	.linkonce discard
	.align 2
	.globl	_ZN3DDTC1ERKS_
	.def	_ZN3DDTC1ERKS_;	.scl	2;	.type	32;	.endef
	.seh_proc	_ZN3DDTC1ERKS_
_ZN3DDTC1ERKS_:
.LFB4681:
	.loc 10 89 2
	pushq	%rbp	 #
	.seh_pushreg	%rbp
.LCFI341:
	pushq	%rbx	 #
	.seh_pushreg	%rbx
.LCFI342:
	subq	$40, %rsp	 #,
	.seh_stackalloc	40
.LCFI343:
	leaq	32(%rsp), %rbp	 #,
	.seh_setframe	%rbp, 32
.LCFI344:
	.seh_endprologue
	movq	%rcx, 32(%rbp)	 # this, this
	movq	%rdx, 40(%rbp)	 # copy, copy
.LBB45:
 # main.cpp:89: 	DDT(const DDT& copy) {
	.loc 10 89 23
	movq	32(%rbp), %rax	 # this, _1
	movq	%rax, %rcx	 # _1,
	call	_ZNSt6vectorIN3DDT4NodeESaIS1_EEC1Ev	 #
	movq	32(%rbp), %rax	 # this, tmp87
	movl	$0, 24(%rax)	 #, this_6(D)->current
 # main.cpp:90: 		nodes = copy.nodes; // copy
	.loc 10 90 16
	movq	40(%rbp), %rdx	 # copy, _2
	movq	32(%rbp), %rax	 # this, _3
	movq	%rax, %rcx	 # _3,
.LEHB6:
	call	_ZNSt6vectorIN3DDT4NodeESaIS1_EEaSERKS3_	 #
.LEHE6:
 # main.cpp:91: 		current = 0;
	.loc 10 91 11
	movq	32(%rbp), %rax	 # this, tmp88
	movl	$0, 24(%rax)	 #, this_6(D)->current
.LBE45:
 # main.cpp:92: 	}
	.loc 10 92 2
	jmp	.L238	 #
.L237:
.LBB46:
	movq	%rax, %rbx	 #, tmp89
	movq	32(%rbp), %rax	 # this, _4
	movq	%rax, %rcx	 # _4,
	call	_ZNSt6vectorIN3DDT4NodeESaIS1_EED1Ev	 #
	movq	%rbx, %rax	 # tmp89, D.129130
	movq	%rax, %rcx	 # D.129130,
.LEHB7:
	call	_Unwind_Resume	 #
	nop	
.LEHE7:
.L238:
.LBE46:
	addq	$40, %rsp	 #,
	popq	%rbx	 #
.LCFI345:
	popq	%rbp	 #
.LCFI346:
	ret	
.LFE4681:
	.seh_handler	__gxx_personality_seh0, @unwind, @except
	.seh_handlerdata
.LLSDA4681:
	.byte	0xff
	.byte	0xff
	.byte	0x1
	.uleb128 .LLSDACSE4681-.LLSDACSB4681
.LLSDACSB4681:
	.uleb128 .LEHB6-.LFB4681
	.uleb128 .LEHE6-.LEHB6
	.uleb128 .L237-.LFB4681
	.uleb128 0
	.uleb128 .LEHB7-.LFB4681
	.uleb128 .LEHE7-.LEHB7
	.uleb128 0
	.uleb128 0
.LLSDACSE4681:
	.section	.text$_ZN3DDTC1ERKS_,"x"
	.linkonce discard
	.seh_endproc
	.section .rdata,"dr"
	.align 8
.LC16:
	.ascii "(int)selected.next.size() == outc\0"
.LC17:
	.ascii "main.cpp\0"
.LC18:
	.ascii "Mutated %i time(s).\12\0"
	.section	.text$_ZN3DDT9mutate_ipEv,"x"
	.linkonce discard
	.align 2
	.globl	_ZN3DDT9mutate_ipEv
	.def	_ZN3DDT9mutate_ipEv;	.scl	2;	.type	32;	.endef
	.seh_proc	_ZN3DDT9mutate_ipEv
_ZN3DDT9mutate_ipEv:
.LFB4682:
	.loc 10 95 7
	pushq	%rbp	 #
	.seh_pushreg	%rbp
.LCFI347:
	pushq	%rbx	 #
	.seh_pushreg	%rbx
.LCFI348:
	subq	$152, %rsp	 #,
	.seh_stackalloc	152
.LCFI349:
	leaq	144(%rsp), %rbp	 #,
	.seh_setframe	%rbp, 144
.LCFI350:
	.seh_endprologue
	movq	%rcx, 32(%rbp)	 # this, this
 # main.cpp:96: 		int mutation_count = 0;
	.loc 10 96 7
	movl	$0, -4(%rbp)	 #, mutation_count
.LBB47:
 # main.cpp:97: 		for (int tries = 0; tries < (int)nodes.size(); tries++) {
	.loc 10 97 12
	movl	$0, -8(%rbp)	 #, tries
 # main.cpp:97: 		for (int tries = 0; tries < (int)nodes.size(); tries++) {
	.loc 10 97 3
	jmp	.L240	 #
.L248:
.LBB48:
 # main.cpp:98: 			Node& selected = nodes[nodes.size() - tries - 1]; // Mutate over last mutations (idk, maybe it won't work)
	.loc 10 98 51
	movq	32(%rbp), %rbx	 # this, _1
 # main.cpp:98: 			Node& selected = nodes[nodes.size() - tries - 1]; // Mutate over last mutations (idk, maybe it won't work)
	.loc 10 98 37
	movq	32(%rbp), %rax	 # this, _2
	movq	%rax, %rcx	 # _2,
	call	_ZNKSt6vectorIN3DDT4NodeESaIS1_EE4sizeEv	 #
 # main.cpp:98: 			Node& selected = nodes[nodes.size() - tries - 1]; // Mutate over last mutations (idk, maybe it won't work)
	.loc 10 98 42
	movl	-8(%rbp), %edx	 # tries, tmp124
	movslq	%edx, %rdx	 # tmp124, _4
 # main.cpp:98: 			Node& selected = nodes[nodes.size() - tries - 1]; // Mutate over last mutations (idk, maybe it won't work)
	.loc 10 98 40
	subq	%rdx, %rax	 # _4, _5
 # main.cpp:98: 			Node& selected = nodes[nodes.size() - tries - 1]; // Mutate over last mutations (idk, maybe it won't work)
	.loc 10 98 51
	subq	$1, %rax	 #, _6
	movq	%rax, %rdx	 # _6,
	movq	%rbx, %rcx	 # _1,
	call	_ZNSt6vectorIN3DDT4NodeESaIS1_EEixEy	 #
	movq	%rax, -24(%rbp)	 # tmp125, selected
 # main.cpp:99: 			const int outc = act_outc[selected.action];
	.loc 10 99 39
	movq	-24(%rbp), %rax	 # selected, tmp126
	movl	(%rax), %eax	 # selected_60->action, _7
 # main.cpp:99: 			const int outc = act_outc[selected.action];
	.loc 10 99 14
	cltq
	leaq	0(,%rax,4), %rdx	 #, tmp128
	leaq	_ZL8act_outc(%rip), %rax	 #, tmp129
	movl	(%rdx,%rax), %eax	 # act_outc[_8], tmp130
	movl	%eax, -28(%rbp)	 # tmp130, outc
 # main.cpp:100: 			if ((int)selected.next.size() >= outc) {
	.loc 10 100 31
	movq	-24(%rbp), %rax	 # selected, tmp131
	addq	$8, %rax	 #, _9
	movq	%rax, %rcx	 # _9,
.LEHB8:
	call	_ZNK7OptimapIhiE4sizeEv	 #
 # main.cpp:100: 			if ((int)selected.next.size() >= outc) {
	.loc 10 100 34
	cmpl	%eax, -28(%rbp)	 # _10, outc
	setle	%al	 #, retval.102_64
 # main.cpp:100: 			if ((int)selected.next.size() >= outc) {
	.loc 10 100 4
	testb	%al, %al	 # retval.102_64
	je	.L241	 #,
 # main.cpp:101: 				assert((int)selected.next.size() == outc);
	.loc 10 101 5 discriminator 1
	movq	-24(%rbp), %rax	 # selected, tmp132
	addq	$8, %rax	 #, _11
	movq	%rax, %rcx	 # _11,
	call	_ZNK7OptimapIhiE4sizeEv	 #
	cmpl	%eax, -28(%rbp)	 # _12, outc
	sete	%al	 #, _13
	movzbl	%al, %eax	 # _13, _14
	leaq	.LC16(%rip), %r9	 #,
	movl	$101, %r8d	 #,
	leaq	.LC17(%rip), %rdx	 #, tmp133
	movl	%eax, %ecx	 # _14,
	call	_Z8__assertbPKciS0_	 #
 # main.cpp:102: 				continue;
	.loc 10 102 5 discriminator 1
	jmp	.L242	 #
.L241:
.LBB49:
 # main.cpp:104: 			for (ActionOutput aoi = 0; aoi < outc; aoi++) {
	.loc 10 104 22
	movb	$0, -9(%rbp)	 #, aoi
 # main.cpp:104: 			for (ActionOutput aoi = 0; aoi < outc; aoi++) {
	.loc 10 104 4
	jmp	.L243	 #
.L247:
 # main.cpp:105: 				if ((!selected.next.contains(aoi)) && rand()%2) {
	.loc 10 105 33
	movq	-24(%rbp), %rax	 # selected, tmp134
	leaq	8(%rax), %rcx	 #, _15
	movzbl	-9(%rbp), %eax	 # aoi, _16
	movl	%eax, %edx	 # _16,
	call	_ZNK7OptimapIhiE8containsEh	 #
 # main.cpp:105: 				if ((!selected.next.contains(aoi)) && rand()%2) {
	.loc 10 105 10
	xorl	$1, %eax	 #, _18
 # main.cpp:105: 				if ((!selected.next.contains(aoi)) && rand()%2) {
	.loc 10 105 40
	testb	%al, %al	 # _18
	je	.L244	 #,
 # main.cpp:105: 				if ((!selected.next.contains(aoi)) && rand()%2) {
	.loc 10 105 47 discriminator 1
	call	rand	 #
 # main.cpp:105: 				if ((!selected.next.contains(aoi)) && rand()%2) {
	.loc 10 105 49 discriminator 1
	andl	$1, %eax	 #, _21
 # main.cpp:105: 				if ((!selected.next.contains(aoi)) && rand()%2) {
	.loc 10 105 40 discriminator 1
	testl	%eax, %eax	 # _21
	je	.L244	 #,
 # main.cpp:105: 				if ((!selected.next.contains(aoi)) && rand()%2) {
	.loc 10 105 40 is_stmt 0 discriminator 3
	movl	$1, %eax	 #, iftmp.104_43
	jmp	.L245	 #
.L244:
 # main.cpp:105: 				if ((!selected.next.contains(aoi)) && rand()%2) {
	.loc 10 105 40 discriminator 4
	movl	$0, %eax	 #, iftmp.104_43
.L245:
 # main.cpp:105: 				if ((!selected.next.contains(aoi)) && rand()%2) {
	.loc 10 105 5 is_stmt 1 discriminator 6
	testb	%al, %al	 # iftmp.104_43
	je	.L246	 #,
 # main.cpp:106: 					nodes.push_back(Node((Action)(rand()%ACT_COUNT)));
	.loc 10 106 21
	movq	32(%rbp), %rbx	 # this, _22
 # main.cpp:106: 					nodes.push_back(Node((Action)(rand()%ACT_COUNT)));
	.loc 10 106 40
	call	rand	 #
 # main.cpp:106: 					nodes.push_back(Node((Action)(rand()%ACT_COUNT)));
	.loc 10 106 42
	cltd
	shrl	$31, %edx	 #, tmp136
	addl	%edx, %eax	 # tmp136, tmp137
	andl	$1, %eax	 #, tmp138
	subl	%edx, %eax	 # tmp136, tmp139
 # main.cpp:106: 					nodes.push_back(Node((Action)(rand()%ACT_COUNT)));
	.loc 10 106 22
	movl	%eax, %edx	 # _24, _25
	leaq	-112(%rbp), %rax	 #, tmp140
	movq	%rax, %rcx	 # tmp140,
	call	_ZN3DDT4NodeC1E6Action	 #
.LEHE8:
 # main.cpp:106: 					nodes.push_back(Node((Action)(rand()%ACT_COUNT)));
	.loc 10 106 21
	leaq	-112(%rbp), %rax	 #, tmp141
	movq	%rax, %rdx	 # tmp141,
	movq	%rbx, %rcx	 # _22,
.LEHB9:
	call	_ZNSt6vectorIN3DDT4NodeESaIS1_EE9push_backEOS1_	 #
.LEHE9:
 # main.cpp:106: 					nodes.push_back(Node((Action)(rand()%ACT_COUNT)));
	.loc 10 106 22 discriminator 2
	leaq	-112(%rbp), %rax	 #, tmp142
	movq	%rax, %rcx	 # tmp142,
	call	_ZN3DDT4NodeD1Ev	 #
 # main.cpp:107: 					selected.addPath(aoi, (NodeIndex)(nodes.size()-1));
	.loc 10 107 50 discriminator 2
	movq	32(%rbp), %rax	 # this, _26
	movq	%rax, %rcx	 # _26,
	call	_ZNKSt6vectorIN3DDT4NodeESaIS1_EE4sizeEv	 #
 # main.cpp:107: 					selected.addPath(aoi, (NodeIndex)(nodes.size()-1));
	.loc 10 107 52 discriminator 2
	subl	$1, %eax	 #, _29
 # main.cpp:107: 					selected.addPath(aoi, (NodeIndex)(nodes.size()-1));
	.loc 10 107 22 discriminator 2
	movl	%eax, %ecx	 # _29, _30
	movzbl	-9(%rbp), %edx	 # aoi, _31
	movq	-24(%rbp), %rax	 # selected, tmp143
	movl	%ecx, %r8d	 # _30,
	movq	%rax, %rcx	 # tmp143,
.LEHB10:
	call	_ZN3DDT4Node7addPathEhi	 #
 # main.cpp:108: 					mutation_count++;
	.loc 10 108 20 discriminator 2
	addl	$1, -4(%rbp)	 #, mutation_count
.L246:
 # main.cpp:104: 			for (ActionOutput aoi = 0; aoi < outc; aoi++) {
	.loc 10 104 4 discriminator 2
	movzbl	-9(%rbp), %eax	 # aoi, aoi.105_32
	addl	$1, %eax	 #, tmp144
	movb	%al, -9(%rbp)	 # tmp144, aoi
.L243:
 # main.cpp:104: 			for (ActionOutput aoi = 0; aoi < outc; aoi++) {
	.loc 10 104 31 discriminator 1
	movzbl	-9(%rbp), %eax	 # aoi, _33
 # main.cpp:104: 			for (ActionOutput aoi = 0; aoi < outc; aoi++) {
	.loc 10 104 35 discriminator 1
	cmpl	%eax, -28(%rbp)	 # _33, outc
	jg	.L247	 #,
.L242:
.LBE49:
.LBE48:
 # main.cpp:97: 		for (int tries = 0; tries < (int)nodes.size(); tries++) {
	.loc 10 97 3 discriminator 2
	addl	$1, -8(%rbp)	 #, tries
.L240:
 # main.cpp:97: 		for (int tries = 0; tries < (int)nodes.size(); tries++) {
	.loc 10 97 46 discriminator 1
	movq	32(%rbp), %rax	 # this, _34
	movq	%rax, %rcx	 # _34,
	call	_ZNKSt6vectorIN3DDT4NodeESaIS1_EE4sizeEv	 #
 # main.cpp:97: 		for (int tries = 0; tries < (int)nodes.size(); tries++) {
	.loc 10 97 29 discriminator 1
	cmpl	%eax, -8(%rbp)	 # _36, tries
	setl	%al	 #, retval.106_55
	testb	%al, %al	 # retval.106_55
	jne	.L248	 #,
.LBE47:
 # main.cpp:112: 		printf("Mutated %i time(s).\n", mutation_count);
	.loc 10 112 9
	movl	-4(%rbp), %eax	 # mutation_count, tmp145
	movl	%eax, %edx	 # tmp145,
	leaq	.LC18(%rip), %rax	 #, tmp146
	movq	%rax, %rcx	 # tmp146,
	call	_Z6printfPKcz	 #
 # main.cpp:113: 		return *this;
	.loc 10 113 11
	movq	32(%rbp), %rax	 # this, _57
	jmp	.L252	 #
.L251:
.LBB52:
.LBB51:
.LBB50:
 # main.cpp:106: 					nodes.push_back(Node((Action)(rand()%ACT_COUNT)));
	.loc 10 106 22
	movq	%rax, %rbx	 #, tmp149
	leaq	-112(%rbp), %rax	 #, tmp148
	movq	%rax, %rcx	 # tmp148,
	call	_ZN3DDT4NodeD1Ev	 #
	movq	%rbx, %rax	 # tmp149, D.129131
	movq	%rax, %rcx	 # D.129131,
	call	_Unwind_Resume	 #
.LEHE10:
.L252:
.LBE50:
.LBE51:
.LBE52:
 # main.cpp:114: 	}
	.loc 10 114 2
	addq	$152, %rsp	 #,
	popq	%rbx	 #
.LCFI351:
	popq	%rbp	 #
.LCFI352:
	ret	
.LFE4682:
	.seh_handler	__gxx_personality_seh0, @unwind, @except
	.seh_handlerdata
.LLSDA4682:
	.byte	0xff
	.byte	0xff
	.byte	0x1
	.uleb128 .LLSDACSE4682-.LLSDACSB4682
.LLSDACSB4682:
	.uleb128 .LEHB8-.LFB4682
	.uleb128 .LEHE8-.LEHB8
	.uleb128 0
	.uleb128 0
	.uleb128 .LEHB9-.LFB4682
	.uleb128 .LEHE9-.LEHB9
	.uleb128 .L251-.LFB4682
	.uleb128 0
	.uleb128 .LEHB10-.LFB4682
	.uleb128 .LEHE10-.LEHB10
	.uleb128 0
	.uleb128 0
.LLSDACSE4682:
	.section	.text$_ZN3DDT9mutate_ipEv,"x"
	.linkonce discard
	.seh_endproc
	.section	.text$_ZN3DDTD1Ev,"x"
	.linkonce discard
	.align 2
	.globl	_ZN3DDTD1Ev
	.def	_ZN3DDTD1Ev;	.scl	2;	.type	32;	.endef
	.seh_proc	_ZN3DDTD1Ev
_ZN3DDTD1Ev:
.LFB4686:
	.loc 10 47 8
	pushq	%rbp	 #
	.seh_pushreg	%rbp
.LCFI353:
	movq	%rsp, %rbp	 #,
	.seh_setframe	%rbp, 0
.LCFI354:
	subq	$32, %rsp	 #,
	.seh_stackalloc	32
	.seh_endprologue
	movq	%rcx, 16(%rbp)	 # this, this
.LBB53:
 # main.cpp:47: struct DDT {
	.loc 10 47 8
	movq	16(%rbp), %rax	 # this, _1
	movq	%rax, %rcx	 # _1,
	call	_ZNSt6vectorIN3DDT4NodeESaIS1_EED1Ev	 #
.LBE53:
	nop	
	addq	$32, %rsp	 #,
	popq	%rbp	 #
.LCFI355:
	ret	
.LFE4686:
	.seh_endproc
	.section	.text$_ZN3DDT6updateER5Blorb,"x"
	.linkonce discard
	.align 2
	.globl	_ZN3DDT6updateER5Blorb
	.def	_ZN3DDT6updateER5Blorb;	.scl	2;	.type	32;	.endef
	.seh_proc	_ZN3DDT6updateER5Blorb
_ZN3DDT6updateER5Blorb:
.LFB4687:
	.loc 10 122 7
	pushq	%rbp	 #
	.seh_pushreg	%rbp
.LCFI356:
	pushq	%rbx	 #
	.seh_pushreg	%rbx
.LCFI357:
	subq	$40, %rsp	 #,
	.seh_stackalloc	40
.LCFI358:
	leaq	32(%rsp), %rbp	 #,
	.seh_setframe	%rbp, 32
.LCFI359:
	.seh_endprologue
	movq	%rcx, 32(%rbp)	 # this, this
	movq	%rdx, 40(%rbp)	 # data, data
 # main.cpp:123: 		if (current == -1) {
	.loc 10 123 7
	movq	32(%rbp), %rax	 # this, tmp90
	movl	24(%rax), %eax	 # this_10(D)->current, _1
 # main.cpp:123: 		if (current == -1) {
	.loc 10 123 3
	cmpl	$-1, %eax	 #, _1
	jne	.L255	 #,
 # main.cpp:124: 			current = 0;
	.loc 10 124 12
	movq	32(%rbp), %rax	 # this, tmp91
	movl	$0, 24(%rax)	 #, this_10(D)->current
.L255:
 # main.cpp:126: 		current = nodes[current].getNextNode(data, nodes.begin());
	.loc 10 126 26
	movq	32(%rbp), %rax	 # this, _2
 # main.cpp:126: 		current = nodes[current].getNextNode(data, nodes.begin());
	.loc 10 126 19
	movq	32(%rbp), %rdx	 # this, tmp92
	movl	24(%rdx), %edx	 # this_10(D)->current, _3
 # main.cpp:126: 		current = nodes[current].getNextNode(data, nodes.begin());
	.loc 10 126 26
	movslq	%edx, %rdx	 # _3, _4
	movq	%rax, %rcx	 # _2,
	call	_ZNSt6vectorIN3DDT4NodeESaIS1_EEixEy	 #
	movq	%rax, %rbx	 #, _5
 # main.cpp:126: 		current = nodes[current].getNextNode(data, nodes.begin());
	.loc 10 126 39
	movq	32(%rbp), %rax	 # this, _6
	movq	%rax, %rcx	 # _6,
	call	_ZNSt6vectorIN3DDT4NodeESaIS1_EE5beginEv	 #
	movq	%rax, %rdx	 #, D.127304
	movq	40(%rbp), %rax	 # data, tmp93
	movq	%rdx, %r8	 # D.127304,
	movq	%rax, %rdx	 # tmp93,
	movq	%rbx, %rcx	 # _5,
	call	_ZN3DDT4Node11getNextNodeER5BlorbN9__gnu_cxx17__normal_iteratorIPS0_St6vectorIS0_SaIS0_EEEE	 #
 # main.cpp:126: 		current = nodes[current].getNextNode(data, nodes.begin());
	.loc 10 126 11
	movq	32(%rbp), %rdx	 # this, tmp94
	movl	%eax, 24(%rdx)	 # _7, this_10(D)->current
 # main.cpp:127: 	}
	.loc 10 127 2
	nop	
	addq	$40, %rsp	 #,
	popq	%rbx	 #
.LCFI360:
	popq	%rbp	 #
.LCFI361:
	ret	
.LFE4687:
	.seh_endproc
	.section	.text$_ZN3DDT4drawE7Vector2i,"x"
	.linkonce discard
	.align 2
	.globl	_ZN3DDT4drawE7Vector2i
	.def	_ZN3DDT4drawE7Vector2i;	.scl	2;	.type	32;	.endef
	.seh_proc	_ZN3DDT4drawE7Vector2i
_ZN3DDT4drawE7Vector2i:
.LFB4688:
	.loc 10 129 7
	pushq	%rbp	 #
	.seh_pushreg	%rbp
.LCFI362:
	pushq	%rbx	 #
	.seh_pushreg	%rbx
.LCFI363:
	subq	$72, %rsp	 #,
	.seh_stackalloc	72
.LCFI364:
	leaq	64(%rsp), %rbp	 #,
	.seh_setframe	%rbp, 64
.LCFI365:
	.seh_endprologue
	movq	%rcx, 32(%rbp)	 # this, this
	movq	%rdx, 40(%rbp)	 # pos, pos
	movl	%r8d, 48(%rbp)	 # index, index
 # main.cpp:130: 		Node& n = nodes[index];
	.loc 10 130 24
	movq	32(%rbp), %rax	 # this, _1
	movl	48(%rbp), %edx	 # index, tmp107
	movslq	%edx, %rdx	 # tmp107, _2
	movq	%rax, %rcx	 # _1,
	call	_ZNSt6vectorIN3DDT4NodeESaIS1_EEixEy	 #
	movq	%rax, -16(%rbp)	 # tmp108, n
.LBB54:
 # main.cpp:131: 		for (int i = 0; i < act_outc[n.action]; i++) {
	.loc 10 131 12
	movl	$0, -4(%rbp)	 #, i
 # main.cpp:131: 		for (int i = 0; i < act_outc[n.action]; i++) {
	.loc 10 131 3
	jmp	.L257	 #
.L259:
.LBB55:
 # main.cpp:133: 				pos.x + (i - act_outc[n.action]/2),
	.loc 10 133 9
	movss	40(%rbp), %xmm1	 # pos.x, _3
 # main.cpp:133: 				pos.x + (i - act_outc[n.action]/2),
	.loc 10 133 29
	movq	-16(%rbp), %rax	 # n, tmp109
	movl	(%rax), %eax	 # n_32->action, _4
 # main.cpp:133: 				pos.x + (i - act_outc[n.action]/2),
	.loc 10 133 35
	cltq
	leaq	0(,%rax,4), %rdx	 #, tmp111
	leaq	_ZL8act_outc(%rip), %rax	 #, tmp112
	movl	(%rdx,%rax), %eax	 # act_outc[_5], _6
 # main.cpp:133: 				pos.x + (i - act_outc[n.action]/2),
	.loc 10 133 36
	movl	%eax, %edx	 # _6, tmp113
	shrl	$31, %edx	 #, tmp113
	addl	%edx, %eax	 # tmp113, tmp114
	sarl	%eax	 # tmp115
	negl	%eax	 # tmp115
	movl	%eax, %edx	 # tmp115, _7
 # main.cpp:133: 				pos.x + (i - act_outc[n.action]/2),
	.loc 10 133 16
	movl	-4(%rbp), %eax	 # i, tmp116
	addl	%edx, %eax	 # _7, _8
 # main.cpp:133: 				pos.x + (i - act_outc[n.action]/2),
	.loc 10 133 11
	pxor	%xmm0, %xmm0	 # _9
	cvtsi2ssl	%eax, %xmm0	 # _8, _9
	addss	%xmm1, %xmm0	 # _3, _10
 # main.cpp:135: 			};
	.loc 10 135 4
	movss	%xmm0, -24(%rbp)	 # _10, next_pos.x
 # main.cpp:134: 				pos.y + 50.f
	.loc 10 134 9
	movss	44(%rbp), %xmm1	 # pos.y, _11
 # main.cpp:134: 				pos.y + 50.f
	.loc 10 134 11
	movss	.LC19(%rip), %xmm0	 #, tmp117
	addss	%xmm1, %xmm0	 # _11, _12
 # main.cpp:135: 			};
	.loc 10 135 4
	movss	%xmm0, -20(%rbp)	 # _12, next_pos.y
 # main.cpp:136: 			DrawLineV(
	.loc 10 136 13
	movb	$-126, %bl	 #, D.128548
	movl	$-126, %eax	 #, tmp118
	movb	%al, %bh	 # tmp118, D.128548
	movl	%ebx, %eax	 # D.128548, D.128548
	andl	$-16711681, %eax	 #, D.128548
	orl	$8519680, %eax	 #, tmp121
	movl	%eax, %ebx	 # tmp121, D.128548
	movl	%ebx, %eax	 # D.128548, D.128548
	orl	$-16777216, %eax	 #, D.128548
	movl	%eax, %ebx	 # tmp123, D.128548
	movq	-24(%rbp), %rdx	 # next_pos, tmp124
	movq	40(%rbp), %rax	 # pos, tmp125
	movl	%ebx, %r8d	 # D.128548,
	movq	%rax, %rcx	 # tmp125,
	call	DrawLineV	 #
 # main.cpp:141: 			if (n.next.contains((ActionOutput)i)) {
	.loc 10 141 23
	movq	-16(%rbp), %rax	 # n, tmp126
	leaq	8(%rax), %rcx	 #, _13
	movl	-4(%rbp), %eax	 # i, tmp127
	movzbl	%al, %eax	 # _14, _15
	movl	%eax, %edx	 # _15,
	call	_ZNK7OptimapIhiE8containsEh	 #
 # main.cpp:141: 			if (n.next.contains((ActionOutput)i)) {
	.loc 10 141 4
	testb	%al, %al	 # _43
	je	.L258	 #,
 # main.cpp:142: 				this->draw(next_pos, n.next[(ActionOutput)i]);
	.loc 10 142 48
	movq	-16(%rbp), %rax	 # n, tmp128
	leaq	8(%rax), %rcx	 #, _16
	movl	-4(%rbp), %eax	 # i, tmp129
	movzbl	%al, %eax	 # _17, _18
	movl	%eax, %edx	 # _18,
	call	_ZN7OptimapIhiEixEh	 #
 # main.cpp:142: 				this->draw(next_pos, n.next[(ActionOutput)i]);
	.loc 10 142 15
	movl	(%rax), %edx	 # *_19, _20
	movq	-24(%rbp), %rax	 # next_pos, tmp130
	movl	%edx, %r8d	 # _20,
	movq	%rax, %rdx	 # tmp130,
	movq	32(%rbp), %rcx	 # this,
	call	_ZN3DDT4drawE7Vector2i	 #
.L258:
.LBE55:
 # main.cpp:131: 		for (int i = 0; i < act_outc[n.action]; i++) {
	.loc 10 131 3 discriminator 2
	addl	$1, -4(%rbp)	 #, i
.L257:
 # main.cpp:131: 		for (int i = 0; i < act_outc[n.action]; i++) {
	.loc 10 131 34 discriminator 1
	movq	-16(%rbp), %rax	 # n, tmp131
	movl	(%rax), %eax	 # n_32->action, _21
 # main.cpp:131: 		for (int i = 0; i < act_outc[n.action]; i++) {
	.loc 10 131 40 discriminator 1
	cltq
	leaq	0(,%rax,4), %rdx	 #, tmp133
	leaq	_ZL8act_outc(%rip), %rax	 #, tmp134
	movl	(%rdx,%rax), %eax	 # act_outc[_22], _23
 # main.cpp:131: 		for (int i = 0; i < act_outc[n.action]; i++) {
	.loc 10 131 21 discriminator 1
	cmpl	%eax, -4(%rbp)	 # _23, i
	jl	.L259	 #,
.LBE54:
 # main.cpp:145: 		n.draw(pos);
	.loc 10 145 9
	movq	40(%rbp), %rdx	 # pos, tmp135
	movq	-16(%rbp), %rax	 # n, tmp136
	movq	%rax, %rcx	 # tmp136,
	call	_ZN3DDT4Node4drawE7Vector2	 #
 # main.cpp:146: 	}
	.loc 10 146 2
	nop	
	addq	$72, %rsp	 #,
	popq	%rbx	 #
.LCFI366:
	popq	%rbp	 #
.LCFI367:
	ret	
.LFE4688:
	.seh_endproc
	.section	.text$_ZN5BlorbC1Ev,"x"
	.linkonce discard
	.align 2
	.globl	_ZN5BlorbC1Ev
	.def	_ZN5BlorbC1Ev;	.scl	2;	.type	32;	.endef
	.seh_proc	_ZN5BlorbC1Ev
_ZN5BlorbC1Ev:
.LFB4691:
	.loc 10 160 2
	pushq	%rbp	 #
	.seh_pushreg	%rbp
.LCFI368:
	movq	%rsp, %rbp	 #,
	.seh_setframe	%rbp, 0
.LCFI369:
	subq	$32, %rsp	 #,
	.seh_stackalloc	32
	.seh_endprologue
	movq	%rcx, 16(%rbp)	 # this, this
.LBB56:
 # main.cpp:160: 	Blorb() {}
	.loc 10 160 10
	movq	16(%rbp), %rax	 # this, tmp84
	movss	.LC20(%rip), %xmm0	 #, tmp85
	movss	%xmm0, (%rax)	 # tmp85, this_4(D)->pos.x
	movq	16(%rbp), %rax	 # this, tmp86
	movss	.LC21(%rip), %xmm0	 #, tmp87
	movss	%xmm0, 4(%rax)	 # tmp87, this_4(D)->pos.y
	movq	16(%rbp), %rax	 # this, tmp88
	pxor	%xmm0, %xmm0	 # tmp89
	movss	%xmm0, 8(%rax)	 # tmp89, this_4(D)->angle
	movq	16(%rbp), %rax	 # this, tmp90
	addq	$16, %rax	 #, _1
	movq	%rax, %rcx	 # _1,
	call	_ZN3DDTC1Ev	 #
.LBE56:
 # main.cpp:160: 	Blorb() {}
	.loc 10 160 11
	nop	
	addq	$32, %rsp	 #,
	popq	%rbp	 #
.LCFI370:
	ret	
.LFE4691:
	.seh_endproc
	.section	.text$_ZNSt12_Vector_baseI5BlorbSaIS0_EE12_Vector_implD1Ev,"x"
	.linkonce discard
	.align 2
	.globl	_ZNSt12_Vector_baseI5BlorbSaIS0_EE12_Vector_implD1Ev
	.def	_ZNSt12_Vector_baseI5BlorbSaIS0_EE12_Vector_implD1Ev;	.scl	2;	.type	32;	.endef
	.seh_proc	_ZNSt12_Vector_baseI5BlorbSaIS0_EE12_Vector_implD1Ev
_ZNSt12_Vector_baseI5BlorbSaIS0_EE12_Vector_implD1Ev:
.LFB4697:
	.loc 11 128 14
	pushq	%rbp	 #
	.seh_pushreg	%rbp
.LCFI371:
	movq	%rsp, %rbp	 #,
	.seh_setframe	%rbp, 0
.LCFI372:
	subq	$32, %rsp	 #,
	.seh_stackalloc	32
	.seh_endprologue
	movq	%rcx, 16(%rbp)	 # this, this
.LBB57:
 # c:\users\pluto\scoop\apps\gcc\current\include\c++\11.2.0\bits\stl_vector.h:128:       struct _Vector_impl
	.loc 11 128 14
	movq	16(%rbp), %rcx	 # this,
	call	_ZNSaI5BlorbED2Ev	 #
.LBE57:
	nop	
	addq	$32, %rsp	 #,
	popq	%rbp	 #
.LCFI373:
	ret	
.LFE4697:
	.seh_endproc
	.section	.text$_ZNSt12_Vector_baseI5BlorbSaIS0_EEC2Ev,"x"
	.linkonce discard
	.align 2
	.globl	_ZNSt12_Vector_baseI5BlorbSaIS0_EEC2Ev
	.def	_ZNSt12_Vector_baseI5BlorbSaIS0_EEC2Ev;	.scl	2;	.type	32;	.endef
	.seh_proc	_ZNSt12_Vector_baseI5BlorbSaIS0_EEC2Ev
_ZNSt12_Vector_baseI5BlorbSaIS0_EEC2Ev:
.LFB4698:
	.loc 11 288 7
	pushq	%rbp	 #
	.seh_pushreg	%rbp
.LCFI374:
	movq	%rsp, %rbp	 #,
	.seh_setframe	%rbp, 0
.LCFI375:
	subq	$32, %rsp	 #,
	.seh_stackalloc	32
	.seh_endprologue
	movq	%rcx, 16(%rbp)	 # this, this
.LBB58:
 # c:\users\pluto\scoop\apps\gcc\current\include\c++\11.2.0\bits\stl_vector.h:288:       _Vector_base() = default;
	.loc 11 288 7
	movq	16(%rbp), %rax	 # this, _1
	movq	%rax, %rcx	 # _1,
	call	_ZNSt12_Vector_baseI5BlorbSaIS0_EE12_Vector_implC1Ev	 #
.LBE58:
	nop	
	addq	$32, %rsp	 #,
	popq	%rbp	 #
.LCFI376:
	ret	
.LFE4698:
	.seh_endproc
	.section	.text$_ZNSt6vectorI5BlorbSaIS0_EEC1Ev,"x"
	.linkonce discard
	.align 2
	.globl	_ZNSt6vectorI5BlorbSaIS0_EEC1Ev
	.def	_ZNSt6vectorI5BlorbSaIS0_EEC1Ev;	.scl	2;	.type	32;	.endef
	.seh_proc	_ZNSt6vectorI5BlorbSaIS0_EEC1Ev
_ZNSt6vectorI5BlorbSaIS0_EEC1Ev:
.LFB4701:
	.loc 11 487 7
	pushq	%rbp	 #
	.seh_pushreg	%rbp
.LCFI377:
	movq	%rsp, %rbp	 #,
	.seh_setframe	%rbp, 0
.LCFI378:
	subq	$32, %rsp	 #,
	.seh_stackalloc	32
	.seh_endprologue
	movq	%rcx, 16(%rbp)	 # this, this
.LBB59:
 # c:\users\pluto\scoop\apps\gcc\current\include\c++\11.2.0\bits\stl_vector.h:487:       vector() = default;
	.loc 11 487 7
	movq	16(%rbp), %rax	 # this, _1
	movq	%rax, %rcx	 # _1,
	call	_ZNSt12_Vector_baseI5BlorbSaIS0_EEC2Ev	 #
.LBE59:
	nop	
	addq	$32, %rsp	 #,
	popq	%rbp	 #
.LCFI379:
	ret	
.LFE4701:
	.seh_endproc
	.globl	bs
	.bss
	.align 16
bs:
	.space 24
	.globl	hovered_index
	.data
	.align 4
hovered_index:
	.long	-1
	.text
	.align 2
	.globl	_ZN5Blorb6updateEv
	.def	_ZN5Blorb6updateEv;	.scl	2;	.type	32;	.endef
	.seh_proc	_ZN5Blorb6updateEv
_ZN5Blorb6updateEv:
.LFB4702:
	.loc 10 169 21
	pushq	%rbp	 #
	.seh_pushreg	%rbp
.LCFI380:
	pushq	%rsi	 #
	.seh_pushreg	%rsi
.LCFI381:
	pushq	%rbx	 #
	.seh_pushreg	%rbx
.LCFI382:
	subq	$48, %rsp	 #,
	.seh_stackalloc	48
.LCFI383:
	leaq	48(%rsp), %rbp	 #,
	.seh_setframe	%rbp, 48
.LCFI384:
	.seh_endprologue
	movq	%rcx, 32(%rbp)	 # this, this
 # main.cpp:170: 	ddt.update(*this);
	.loc 10 170 12
	movq	32(%rbp), %rax	 # this, tmp101
	addq	$16, %rax	 #, _1
	movq	32(%rbp), %rdx	 # this,
	movq	%rax, %rcx	 # _1,
	call	_ZN3DDT6updateER5Blorb	 #
 # main.cpp:171: 	DrawCircleV(pos, size, RED);
	.loc 10 171 13
	movl	-4(%rbp), %ecx	 # %sfp, D.127290
	movb	$-26, %cl	 #, D.127290
	movl	$41, %eax	 #, tmp102
	movb	%al, %ch	 # tmp102, D.127290
	andl	$-16711681, %ecx	 #, D.127290
	movl	%ecx, %eax	 # D.127290, tmp104
	orl	$3604480, %eax	 #, tmp105
	orl	$-16777216, %eax	 #, D.127290
	movl	%eax, %edx	 # tmp107, D.127290
	movq	32(%rbp), %rax	 # this, tmp108
	movl	%edx, %r8d	 # D.127290,
	movss	.LC22(%rip), %xmm1	 #,
	movq	(%rax), %rcx	 # this_13(D)->pos,
	call	DrawCircleV	 #
 # main.cpp:172: 	DrawLineV(
	.loc 10 172 11
	movb	$0, %bl	 #, D.127291
	movl	$-28, %eax	 #, tmp109
	movb	%al, %bh	 # tmp109, D.127291
	movl	%ebx, %eax	 # D.127291, D.127291
	andl	$-16711681, %eax	 #, D.127291
	orl	$3145728, %eax	 #, tmp112
	movl	%eax, %ebx	 # tmp112, D.127291
	movl	%ebx, %eax	 # D.127291, D.127291
	orl	$-16777216, %eax	 #, D.127291
	movl	%eax, %ebx	 # tmp114, D.127291
 # main.cpp:174: 		Vector2Add(pos, Vector2Scale({cosf(angle), -sinf(angle)}, size)),
	.loc 10 174 37
	movq	32(%rbp), %rax	 # this, tmp115
	movl	8(%rax), %eax	 # this_13(D)->angle, _2
	movd	%eax, %xmm0	 # _2,
	call	cosf	 #
 # main.cpp:172: 	DrawLineV(
	.loc 10 172 11
	movd	%xmm0, %edx	 # tmp116, tmp117
	movabsq	$-4294967296, %rax	 #, tmp119
	andq	%rsi, %rax	 # D.127292, tmp118
	orq	%rdx, %rax	 # tmp117, tmp120
	movq	%rax, %rsi	 # tmp120, D.127292
 # main.cpp:174: 		Vector2Add(pos, Vector2Scale({cosf(angle), -sinf(angle)}, size)),
	.loc 10 174 51
	movq	32(%rbp), %rax	 # this, tmp121
	movl	8(%rax), %eax	 # this_13(D)->angle, _4
	movd	%eax, %xmm0	 # _4,
	call	sinf	 #
	movd	%xmm0, %eax	 #, _5
 # main.cpp:174: 		Vector2Add(pos, Vector2Scale({cosf(angle), -sinf(angle)}, size)),
	.loc 10 174 46
	movss	.LC9(%rip), %xmm0	 #, tmp122
	movd	%eax, %xmm2	 # _5, _5
	xorps	%xmm0, %xmm2	 # tmp122, _5
	movaps	%xmm2, %xmm0	 # _5, _6
 # main.cpp:172: 	DrawLineV(
	.loc 10 172 11
	movd	%xmm0, %eax	 # tmp123, tmp124
	salq	$32, %rax	 #, tmp125
	movl	%esi, %edx	 # D.127292, tmp126
	orq	%rdx, %rax	 # tmp126, tmp127
	movq	%rax, %rsi	 # tmp127, D.127292
	movss	.LC22(%rip), %xmm1	 #,
	movq	%rsi, %rcx	 # D.127292,
	call	_Z12Vector2Scale7Vector2f	 #
	movq	%rax, %rdx	 #, D.127293
	movq	32(%rbp), %rax	 # this, tmp128
	movq	(%rax), %rcx	 # this_13(D)->pos,
	call	_Z10Vector2Add7Vector2S_	 #
	movq	%rax, %rdx	 #, D.127294
	movq	32(%rbp), %rax	 # this, tmp129
	movl	%ebx, %r8d	 # D.127291,
	movq	(%rax), %rcx	 # this_13(D)->pos,
	call	DrawLineV	 #
 # main.cpp:177: 	if (Vector2Distance(pos, wmpo) < size) {
	.loc 10 177 21
	movq	wmpo(%rip), %rax	 # wmpo, tmp130
	movq	32(%rbp), %rcx	 # this, tmp131
	movq	%rax, %rdx	 # tmp130,
	movq	(%rcx), %rcx	 # this_13(D)->pos,
	call	_Z15Vector2Distance7Vector2S_	 #
	movd	%xmm0, %eax	 #, _7
 # main.cpp:177: 	if (Vector2Distance(pos, wmpo) < size) {
	.loc 10 177 33
	movd	%eax, %xmm3	 # _7, _7
	comiss	.LC22(%rip), %xmm3	 #, _7
	setb	%al	 #, retval.4_31
 # main.cpp:177: 	if (Vector2Distance(pos, wmpo) < size) {
	.loc 10 177 2
	testb	%al, %al	 # retval.4_31
	je	.L265	 #,
 # main.cpp:178: 		hovered_index = (int)(this - bs.data());
	.loc 10 178 39
	leaq	bs(%rip), %rax	 #, tmp132
	movq	%rax, %rcx	 # tmp132,
	call	_ZNSt6vectorI5BlorbSaIS0_EE4dataEv	 #
	movq	%rax, %rdx	 #, _8
 # main.cpp:178: 		hovered_index = (int)(this - bs.data());
	.loc 10 178 30
	movq	32(%rbp), %rax	 # this, tmp133
	subq	%rdx, %rax	 # _8, _9
	sarq	$4, %rax	 #, _9
	movq	%rax, %rdx	 # _9, tmp134
	movabsq	$-6148914691236517205, %rax	 #, tmp136
	imulq	%rdx, %rax	 # tmp134, tmp135
 # main.cpp:178: 		hovered_index = (int)(this - bs.data());
	.loc 10 178 17
	movl	%eax, hovered_index(%rip)	 # _11, hovered_index
.L265:
 # main.cpp:180: 	return AUM_NONE;
	.loc 10 180 9
	movl	$0, %eax	 #, _34
 # main.cpp:181: }
	.loc 10 181 1
	addq	$48, %rsp	 #,
	popq	%rbx	 #
.LCFI385:
	popq	%rsi	 #
.LCFI386:
	popq	%rbp	 #
.LCFI387:
	ret	
.LFE4702:
	.seh_endproc
	.globl	_Z10f_ACT_NULLR5Blorb
	.def	_Z10f_ACT_NULLR5Blorb;	.scl	2;	.type	32;	.endef
	.seh_proc	_Z10f_ACT_NULLR5Blorb
_Z10f_ACT_NULLR5Blorb:
.LFB4703:
	.loc 10 183 23
	pushq	%rbp	 #
	.seh_pushreg	%rbp
.LCFI388:
	movq	%rsp, %rbp	 #,
	.seh_setframe	%rbp, 0
.LCFI389:
	.seh_endprologue
	movq	%rcx, 16(%rbp)	 # self, self
 # main.cpp:184: 	return 0;
	.loc 10 184 9
	movl	$0, %eax	 #, _1
 # main.cpp:185: }
	.loc 10 185 1
	popq	%rbp	 #
.LCFI390:
	ret	
.LFE4703:
	.seh_endproc
	.globl	_Z18f_ACT_MOVE_FORWARDR5Blorb
	.def	_Z18f_ACT_MOVE_FORWARDR5Blorb;	.scl	2;	.type	32;	.endef
	.seh_proc	_Z18f_ACT_MOVE_FORWARDR5Blorb
_Z18f_ACT_MOVE_FORWARDR5Blorb:
.LFB4704:
	.loc 10 187 31
	pushq	%rbp	 #
	.seh_pushreg	%rbp
.LCFI391:
	subq	$64, %rsp	 #,
	.seh_stackalloc	64
.LCFI392:
	leaq	48(%rsp), %rbp	 #,
	.seh_setframe	%rbp, 48
.LCFI393:
	movaps	%xmm6, 0(%rbp)	 #,
	.seh_savexmm	%xmm6, 48
.LCFI394:
	.seh_endprologue
	movq	%rcx, 32(%rbp)	 # self, self
 # main.cpp:188: 	const float fwspeed = 2.f;
	.loc 10 188 14
	movss	.LC23(%rip), %xmm0	 #, tmp95
	movss	%xmm0, -4(%rbp)	 # tmp95, fwspeed
 # main.cpp:189: 	self.pos.x += cosf(self.angle) * fwspeed;
	.loc 10 189 13
	movq	32(%rbp), %rax	 # self, tmp96
	movss	(%rax), %xmm6	 # self_14(D)->pos.x, _1
 # main.cpp:189: 	self.pos.x += cosf(self.angle) * fwspeed;
	.loc 10 189 20
	movq	32(%rbp), %rax	 # self, tmp97
	movl	8(%rax), %eax	 # self_14(D)->angle, _2
	movd	%eax, %xmm0	 # _2,
	call	cosf	 #
 # main.cpp:189: 	self.pos.x += cosf(self.angle) * fwspeed;
	.loc 10 189 33
	addss	%xmm0, %xmm0	 # _3, _4
 # main.cpp:189: 	self.pos.x += cosf(self.angle) * fwspeed;
	.loc 10 189 13
	addss	%xmm6, %xmm0	 # _1, _5
	movq	32(%rbp), %rax	 # self, tmp98
	movss	%xmm0, (%rax)	 # _5, self_14(D)->pos.x
 # main.cpp:190: 	self.pos.y += -sinf(self.angle) * fwspeed;
	.loc 10 190 13
	movq	32(%rbp), %rax	 # self, tmp99
	movss	4(%rax), %xmm6	 # self_14(D)->pos.y, _6
 # main.cpp:190: 	self.pos.y += -sinf(self.angle) * fwspeed;
	.loc 10 190 21
	movq	32(%rbp), %rax	 # self, tmp100
	movl	8(%rax), %eax	 # self_14(D)->angle, _7
	movd	%eax, %xmm0	 # _7,
	call	sinf	 #
	movd	%xmm0, %eax	 #, _8
 # main.cpp:190: 	self.pos.y += -sinf(self.angle) * fwspeed;
	.loc 10 190 16
	movss	.LC9(%rip), %xmm0	 #, tmp101
	movd	%eax, %xmm1	 # _8, _8
	xorps	%xmm0, %xmm1	 # tmp101, _8
	movaps	%xmm1, %xmm0	 # _8, _9
 # main.cpp:190: 	self.pos.y += -sinf(self.angle) * fwspeed;
	.loc 10 190 34
	addss	%xmm0, %xmm0	 # _9, _10
 # main.cpp:190: 	self.pos.y += -sinf(self.angle) * fwspeed;
	.loc 10 190 13
	addss	%xmm6, %xmm0	 # _6, _11
	movq	32(%rbp), %rax	 # self, tmp102
	movss	%xmm0, 4(%rax)	 # _11, self_14(D)->pos.y
 # main.cpp:191: 	return 0;
	.loc 10 191 9
	movl	$0, %eax	 #, _17
 # main.cpp:192: }
	.loc 10 192 1
	movaps	0(%rbp), %xmm6	 #,
	addq	$64, %rsp	 #,
.LCFI395:
	popq	%rbp	 #
.LCFI396:
	ret	
.LFE4704:
	.seh_endproc
	.section	.text$_ZN5BlorbD1Ev,"x"
	.linkonce discard
	.align 2
	.globl	_ZN5BlorbD1Ev
	.def	_ZN5BlorbD1Ev;	.scl	2;	.type	32;	.endef
	.seh_proc	_ZN5BlorbD1Ev
_ZN5BlorbD1Ev:
.LFB4708:
	.loc 10 154 8
	pushq	%rbp	 #
	.seh_pushreg	%rbp
.LCFI397:
	movq	%rsp, %rbp	 #,
	.seh_setframe	%rbp, 0
.LCFI398:
	subq	$32, %rsp	 #,
	.seh_stackalloc	32
	.seh_endprologue
	movq	%rcx, 16(%rbp)	 # this, this
.LBB60:
 # main.cpp:154: struct Blorb {
	.loc 10 154 8
	movq	16(%rbp), %rax	 # this, tmp83
	addq	$16, %rax	 #, _1
	movq	%rax, %rcx	 # _1,
	call	_ZN3DDTD1Ev	 #
.LBE60:
	nop	
	addq	$32, %rsp	 #,
	popq	%rbp	 #
.LCFI399:
	ret	
.LFE4708:
	.seh_endproc
	.text
	.globl	_Z10spawnBlorbi
	.def	_Z10spawnBlorbi;	.scl	2;	.type	32;	.endef
	.seh_proc	_Z10spawnBlorbi
_Z10spawnBlorbi:
.LFB4705:
	.loc 10 194 43
	pushq	%rbp	 #
	.seh_pushreg	%rbp
.LCFI400:
	pushq	%rbx	 #
	.seh_pushreg	%rbx
.LCFI401:
	subq	$104, %rsp	 #,
	.seh_stackalloc	104
.LCFI402:
	leaq	96(%rsp), %rbp	 #,
	.seh_setframe	%rbp, 96
.LCFI403:
	.seh_endprologue
	movl	%ecx, 32(%rbp)	 # start_mutation_count, start_mutation_count
 # main.cpp:195: 	bs.push_back(Blorb());
	.loc 10 195 15
	leaq	-64(%rbp), %rax	 #, tmp85
	movq	%rax, %rcx	 # tmp85,
.LEHB11:
	call	_ZN5BlorbC1Ev	 #
.LEHE11:
 # main.cpp:195: 	bs.push_back(Blorb());
	.loc 10 195 14
	leaq	-64(%rbp), %rax	 #, tmp86
	movq	%rax, %rdx	 # tmp86,
	leaq	bs(%rip), %rax	 #, tmp87
	movq	%rax, %rcx	 # tmp87,
.LEHB12:
	call	_ZNSt6vectorI5BlorbSaIS0_EE9push_backEOS0_	 #
.LEHE12:
 # main.cpp:195: 	bs.push_back(Blorb());
	.loc 10 195 15 discriminator 2
	leaq	-64(%rbp), %rax	 #, tmp88
	movq	%rax, %rcx	 # tmp88,
	call	_ZN5BlorbD1Ev	 #
.LBB61:
 # main.cpp:196: 	for(int i = 0; i < start_mutation_count; i++) {
	.loc 10 196 10 discriminator 2
	movl	$0, -4(%rbp)	 #, i
 # main.cpp:196: 	for(int i = 0; i < start_mutation_count; i++) {
	.loc 10 196 2 discriminator 2
	jmp	.L273	 #
.L274:
 # main.cpp:197: 		bs.back().ddt.mutate_ip();
	.loc 10 197 10 discriminator 3
	leaq	bs(%rip), %rax	 #, tmp89
	movq	%rax, %rcx	 # tmp89,
	call	_ZNSt6vectorI5BlorbSaIS0_EE4backEv	 #
 # main.cpp:197: 		bs.back().ddt.mutate_ip();
	.loc 10 197 26 discriminator 3
	addq	$16, %rax	 #, _2
	movq	%rax, %rcx	 # _2,
.LEHB13:
	call	_ZN3DDT9mutate_ipEv	 #
 # main.cpp:196: 	for(int i = 0; i < start_mutation_count; i++) {
	.loc 10 196 2 discriminator 3
	addl	$1, -4(%rbp)	 #, i
.L273:
 # main.cpp:196: 	for(int i = 0; i < start_mutation_count; i++) {
	.loc 10 196 19 discriminator 1
	movl	-4(%rbp), %eax	 # i, tmp90
	cmpl	32(%rbp), %eax	 # start_mutation_count, tmp90
	jl	.L274	 #,
.LBE61:
 # main.cpp:199: }
	.loc 10 199 1
	jmp	.L277	 #
.L276:
 # main.cpp:195: 	bs.push_back(Blorb());
	.loc 10 195 15
	movq	%rax, %rbx	 #, tmp92
	leaq	-64(%rbp), %rax	 #, tmp91
	movq	%rax, %rcx	 # tmp91,
	call	_ZN5BlorbD1Ev	 #
	movq	%rbx, %rax	 # tmp92, D.129136
	movq	%rax, %rcx	 # D.129136,
	call	_Unwind_Resume	 #
	nop	
.LEHE13:
.L277:
 # main.cpp:199: }
	.loc 10 199 1
	addq	$104, %rsp	 #,
	popq	%rbx	 #
.LCFI404:
	popq	%rbp	 #
.LCFI405:
	ret	
.LFE4705:
	.seh_handler	__gxx_personality_seh0, @unwind, @except
	.seh_handlerdata
.LLSDA4705:
	.byte	0xff
	.byte	0xff
	.byte	0x1
	.uleb128 .LLSDACSE4705-.LLSDACSB4705
.LLSDACSB4705:
	.uleb128 .LEHB11-.LFB4705
	.uleb128 .LEHE11-.LEHB11
	.uleb128 0
	.uleb128 0
	.uleb128 .LEHB12-.LFB4705
	.uleb128 .LEHE12-.LEHB12
	.uleb128 .L276-.LFB4705
	.uleb128 0
	.uleb128 .LEHB13-.LFB4705
	.uleb128 .LEHE13-.LEHB13
	.uleb128 0
	.uleb128 0
.LLSDACSE4705:
	.text
	.seh_endproc
	.globl	camera
	.bss
	.align 16
camera:
	.space 24
	.def	__main;	.scl	2;	.type	32;	.endef
	.section .rdata,"dr"
.LC24:
	.ascii "Name of the window here.\0"
	.text
	.globl	main
	.def	main;	.scl	2;	.type	32;	.endef
	.seh_proc	main
main:
.LFB4709:
	.loc 10 203 12
	pushq	%rbp	 #
	.seh_pushreg	%rbp
.LCFI406:
	pushq	%rdi	 #
	.seh_pushreg	%rdi
.LCFI407:
	pushq	%rsi	 #
	.seh_pushreg	%rsi
.LCFI408:
	pushq	%rbx	 #
	.seh_pushreg	%rbx
.LCFI409:
	subq	$104, %rsp	 #,
	.seh_stackalloc	104
.LCFI410:
	leaq	96(%rsp), %rbp	 #,
	.seh_setframe	%rbp, 96
.LCFI411:
	.seh_endprologue
 # main.cpp:203: int main() {
	.loc 10 203 12
	call	__main	 #
 # main.cpp:204: 	SetTargetFPS(60);
	.loc 10 204 14
	movl	$60, %ecx	 #,
	call	SetTargetFPS	 #
 # main.cpp:205: 	InitWindow(XMAX, YMAX, "Name of the window here.");
	.loc 10 205 12
	leaq	.LC24(%rip), %r8	 #,
	movl	$900, %edx	 #,
	movl	$1600, %ecx	 #,
	call	InitWindow	 #
 # main.cpp:207: 	camera.offset = {XMAX/2.f, YMAX/2.f};
	.loc 10 207 16
	movss	.LC20(%rip), %xmm0	 #, tmp108
	movss	%xmm0, camera(%rip)	 # tmp108, camera.offset.x
	movss	.LC21(%rip), %xmm0	 #, tmp109
	movss	%xmm0, 4+camera(%rip)	 # tmp109, camera.offset.y
 # main.cpp:208: 	camera.target = {XMAX/2.f, YMAX/2.f};
	.loc 10 208 16
	movss	.LC20(%rip), %xmm0	 #, tmp110
	movss	%xmm0, 8+camera(%rip)	 # tmp110, camera.target.x
	movss	.LC21(%rip), %xmm0	 #, tmp111
	movss	%xmm0, 12+camera(%rip)	 # tmp111, camera.target.y
 # main.cpp:209: 	camera.zoom = 1.f;
	.loc 10 209 14
	movss	.LC1(%rip), %xmm0	 #, tmp112
	movss	%xmm0, 20+camera(%rip)	 # tmp112, camera.zoom
 # main.cpp:210: 	camera.rotation = 0.f;
	.loc 10 210 18
	pxor	%xmm0, %xmm0	 # tmp113
	movss	%xmm0, 16+camera(%rip)	 # tmp113, camera.rotation
.LBB62:
 # main.cpp:213: 	for (int i = 0; i < 1; i++) {
	.loc 10 213 11
	movl	$0, -4(%rbp)	 #, i
 # main.cpp:213: 	for (int i = 0; i < 1; i++) {
	.loc 10 213 2
	jmp	.L279	 #
.L280:
 # main.cpp:214: 		spawnBlorb(3);
	.loc 10 214 13 discriminator 3
	movl	$3, %ecx	 #,
	call	_Z10spawnBlorbi	 #
 # main.cpp:213: 	for (int i = 0; i < 1; i++) {
	.loc 10 213 2 discriminator 3
	addl	$1, -4(%rbp)	 #, i
.L279:
 # main.cpp:213: 	for (int i = 0; i < 1; i++) {
	.loc 10 213 20 discriminator 1
	cmpl	$0, -4(%rbp)	 #, i
	jle	.L280	 #,
.LBE62:
 # main.cpp:217: 	while (!WindowShouldClose()) {
	.loc 10 217 2
	jmp	.L281	 #
.L289:
.LBB63:
 # main.cpp:218: 		if (IsMouseButtonDown(MOUSE_LEFT_BUTTON)) {
	.loc 10 218 24
	movl	$0, %ecx	 #,
	call	IsMouseButtonDown	 #
 # main.cpp:218: 		if (IsMouseButtonDown(MOUSE_LEFT_BUTTON)) {
	.loc 10 218 3
	testb	%al, %al	 # _45
	je	.L282	 #,
 # main.cpp:219: 			camera.target = Vector2Subtract(camera.target, mdt);
	.loc 10 219 35
	movq	mdt(%rip), %rdx	 # mdt, tmp114
	movq	8+camera(%rip), %rax	 # camera.target, tmp115
	movq	%rax, %rcx	 # tmp115,
	call	_Z15Vector2Subtract7Vector2S_	 #
	movq	%rax, 8+camera(%rip)	 # tmp116, camera.target
.L282:
 # main.cpp:222: 		BeginDrawing();
	.loc 10 222 15
	call	BeginDrawing	 #
 # main.cpp:223: 			ClearBackground(BLACK);
	.loc 10 223 19
	movb	$0, %bl	 #, D.128463
	movl	$0, %eax	 #, tmp117
	movb	%al, %bh	 # tmp117, D.128463
	movl	%ebx, %eax	 # D.128463, D.128463
	andl	$-16711681, %eax	 #, D.128463
	movl	%eax, %ebx	 # tmp119, D.128463
	movl	%ebx, %eax	 # D.128463, D.128463
	orl	$-16777216, %eax	 #, D.128463
	movl	%eax, %ebx	 # tmp121, D.128463
	movl	%ebx, %ecx	 # D.128463,
	call	ClearBackground	 #
 # main.cpp:225: 			hovered_index = -1;
	.loc 10 225 18
	movl	$-1, hovered_index(%rip)	 #, hovered_index
 # main.cpp:226: 			BeginMode2D(camera);
	.loc 10 226 15
	movq	camera(%rip), %rax	 # camera, tmp122
	movq	8+camera(%rip), %rdx	 # camera,
	movq	%rax, -64(%rbp)	 # tmp122,
	movq	%rdx, -56(%rbp)	 #,
	movq	16+camera(%rip), %rax	 # camera, tmp123
	movq	%rax, -48(%rbp)	 # tmp123,
	leaq	-64(%rbp), %rax	 #, tmp124
	movq	%rax, %rcx	 # tmp124,
	call	BeginMode2D	 #
.LBB64:
 # main.cpp:227: 				for (int i = 0; i < (int)bs.size(); i++) {
	.loc 10 227 14
	movl	$0, -8(%rbp)	 #, i
 # main.cpp:227: 				for (int i = 0; i < (int)bs.size(); i++) {
	.loc 10 227 5
	jmp	.L283	 #
.L285:
 # main.cpp:228: 					if (bs[i].update() == AUM_RMV) {
	.loc 10 228 14
	movl	-8(%rbp), %eax	 # i, tmp125
	cltq
	movq	%rax, %rdx	 # _1,
	leaq	bs(%rip), %rax	 #, tmp126
	movq	%rax, %rcx	 # tmp126,
	call	_ZNSt6vectorI5BlorbSaIS0_EEixEy	 #
 # main.cpp:228: 					if (bs[i].update() == AUM_RMV) {
	.loc 10 228 22
	movq	%rax, %rcx	 # _2,
	call	_ZN5Blorb6updateEv	 #
 # main.cpp:228: 					if (bs[i].update() == AUM_RMV) {
	.loc 10 228 25
	cmpl	$1, %eax	 #, _3
	sete	%al	 #, retval.111_79
 # main.cpp:228: 					if (bs[i].update() == AUM_RMV) {
	.loc 10 228 6
	testb	%al, %al	 # retval.111_79
	je	.L284	 #,
 # main.cpp:229: 						bs.erase(bs.begin() + i);
	.loc 10 229 29
	movl	-8(%rbp), %eax	 # i, tmp127
	movslq	%eax, %rsi	 # tmp127, _4
 # main.cpp:229: 						bs.erase(bs.begin() + i);
	.loc 10 229 24
	leaq	bs(%rip), %rax	 #, tmp128
	movq	%rax, %rcx	 # tmp128,
	call	_ZNSt6vectorI5BlorbSaIS0_EE5beginEv	 #
	movq	%rax, -16(%rbp)	 # tmp130, D.108107
 # main.cpp:229: 						bs.erase(bs.begin() + i);
	.loc 10 229 29
	leaq	-16(%rbp), %rax	 #, tmp131
	movq	%rsi, %rdx	 # _4,
	movq	%rax, %rcx	 # tmp131,
	call	_ZNK9__gnu_cxx17__normal_iteratorIP5BlorbSt6vectorIS1_SaIS1_EEEplEx	 #
	movq	%rax, -24(%rbp)	 # tmp133, D.108117
 # main.cpp:229: 						bs.erase(bs.begin() + i);
	.loc 10 229 15
	leaq	-24(%rbp), %rdx	 #, tmp134
	leaq	-32(%rbp), %rax	 #, tmp135
	movq	%rax, %rcx	 # tmp135,
	call	_ZN9__gnu_cxx17__normal_iteratorIPK5BlorbSt6vectorIS1_SaIS1_EEEC1IPS1_EERKNS0_IT_NS_11__enable_ifIXsrSt10__are_sameISA_S9_E7__valueES6_E6__typeEEE	 #
	movq	-32(%rbp), %rax	 # D.108328, tmp136
	movq	%rax, %rdx	 # tmp136,
	leaq	bs(%rip), %rax	 #, tmp137
	movq	%rax, %rcx	 # tmp137,
	call	_ZNSt6vectorI5BlorbSaIS0_EE5eraseEN9__gnu_cxx17__normal_iteratorIPKS0_S2_EE	 #
 # main.cpp:230: 						i--;
	.loc 10 230 8
	subl	$1, -8(%rbp)	 #, i
.L284:
 # main.cpp:227: 				for (int i = 0; i < (int)bs.size(); i++) {
	.loc 10 227 5 discriminator 2
	addl	$1, -8(%rbp)	 #, i
.L283:
 # main.cpp:227: 				for (int i = 0; i < (int)bs.size(); i++) {
	.loc 10 227 37 discriminator 1
	leaq	bs(%rip), %rax	 #, tmp138
	movq	%rax, %rcx	 # tmp138,
	call	_ZNKSt6vectorI5BlorbSaIS0_EE4sizeEv	 #
 # main.cpp:227: 				for (int i = 0; i < (int)bs.size(); i++) {
	.loc 10 227 23 discriminator 1
	cmpl	%eax, -8(%rbp)	 # _6, i
	setl	%al	 #, retval.112_58
	testb	%al, %al	 # retval.112_58
	jne	.L285	 #,
.LBE64:
 # main.cpp:233: 			EndMode2D();
	.loc 10 233 13
	call	EndMode2D	 #
 # main.cpp:235: 			if (hovered_index >= 0 && hovered_index < (int)bs.size()) {
	.loc 10 235 22
	movl	hovered_index(%rip), %eax	 # hovered_index, hovered_index.115_7
 # main.cpp:235: 			if (hovered_index >= 0 && hovered_index < (int)bs.size()) {
	.loc 10 235 27
	testl	%eax, %eax	 # hovered_index.115_7
	js	.L286	 #,
 # main.cpp:235: 			if (hovered_index >= 0 && hovered_index < (int)bs.size()) {
	.loc 10 235 58 discriminator 1
	leaq	bs(%rip), %rax	 #, tmp139
	movq	%rax, %rcx	 # tmp139,
	call	_ZNKSt6vectorI5BlorbSaIS0_EE4sizeEv	 #
 # main.cpp:235: 			if (hovered_index >= 0 && hovered_index < (int)bs.size()) {
	.loc 10 235 44 discriminator 1
	movl	%eax, %edx	 # _8, _9
	movl	hovered_index(%rip), %eax	 # hovered_index, hovered_index.116_10
 # main.cpp:235: 			if (hovered_index >= 0 && hovered_index < (int)bs.size()) {
	.loc 10 235 27 discriminator 1
	cmpl	%eax, %edx	 # hovered_index.116_10, _9
	jle	.L286	 #,
 # main.cpp:235: 			if (hovered_index >= 0 && hovered_index < (int)bs.size()) {
	.loc 10 235 27 is_stmt 0 discriminator 3
	movl	$1, %eax	 #, iftmp.114_20
	jmp	.L287	 #
.L286:
 # main.cpp:235: 			if (hovered_index >= 0 && hovered_index < (int)bs.size()) {
	.loc 10 235 27 discriminator 4
	movl	$0, %eax	 #, iftmp.114_20
.L287:
 # main.cpp:235: 			if (hovered_index >= 0 && hovered_index < (int)bs.size()) {
	.loc 10 235 4 is_stmt 1 discriminator 6
	testb	%al, %al	 # iftmp.114_20
	je	.L288	 #,
 # main.cpp:236: 				bs[hovered_index].ddt.draw({XMAX/2.f, 50.f}, 0);
	.loc 10 236 21
	movl	hovered_index(%rip), %eax	 # hovered_index, hovered_index.117_11
	cltq
	movq	%rax, %rdx	 # _12,
	leaq	bs(%rip), %rax	 #, tmp140
	movq	%rax, %rcx	 # tmp140,
	call	_ZNSt6vectorI5BlorbSaIS0_EEixEy	 #
 # main.cpp:236: 				bs[hovered_index].ddt.draw({XMAX/2.f, 50.f}, 0);
	.loc 10 236 31
	addq	$16, %rax	 #, _14
	movl	$1145569280, %edx	 #, tmp141
	movl	%edx, %ecx	 # tmp141, tmp142
	movabsq	$-4294967296, %rdx	 #, tmp144
	andq	%rdi, %rdx	 # D.128477, tmp143
	orq	%rcx, %rdx	 # tmp142, tmp145
	movq	%rdx, %rdi	 # tmp145, D.128477
	movl	$1112014848, %edx	 #, tmp146
	movl	%edx, %edx	 # tmp146, tmp147
	salq	$32, %rdx	 #, tmp148
	movl	%edi, %ecx	 # D.128477, tmp149
	orq	%rcx, %rdx	 # tmp149, tmp150
	movq	%rdx, %rdi	 # tmp150, D.128477
	movl	$0, %r8d	 #,
	movq	%rdi, %rdx	 # D.128477,
	movq	%rax, %rcx	 # _14,
	call	_ZN3DDT4drawE7Vector2i	 #
.L288:
 # main.cpp:239: 			DrawFPS(0, 0);
	.loc 10 239 11
	movl	$0, %edx	 #,
	movl	$0, %ecx	 #,
	call	DrawFPS	 #
 # main.cpp:240: 		EndDrawing();
	.loc 10 240 13
	call	EndDrawing	 #
 # main.cpp:242: 		mpo = GetMousePosition();
	.loc 10 242 25
	call	GetMousePosition	 #
	movq	%rax, mpo(%rip)	 # tmp152, mpo
 # main.cpp:243: 		wmpo = GetScreenToWorld2D(mpo, camera);
	.loc 10 243 28
	movq	camera(%rip), %rax	 # camera, tmp153
	movq	8+camera(%rip), %rdx	 # camera,
	movq	%rax, -64(%rbp)	 # tmp153,
	movq	%rdx, -56(%rbp)	 #,
	movq	16+camera(%rip), %rax	 # camera, tmp154
	movq	%rax, -48(%rbp)	 # tmp154,
	leaq	-64(%rbp), %rdx	 #, tmp155
	movq	mpo(%rip), %rax	 # mpo, tmp156
	movq	%rax, %rcx	 # tmp156,
	call	GetScreenToWorld2D	 #
	movq	%rax, wmpo(%rip)	 # tmp158, wmpo
 # main.cpp:244: 		mdt = GetMouseDelta();
	.loc 10 244 22
	call	GetMouseDelta	 #
	movq	%rax, mdt(%rip)	 # tmp160, mdt
 # main.cpp:245: 		dt = GetFrameTime();
	.loc 10 245 20
	call	GetFrameTime	 #
	movd	%xmm0, %eax	 #, _15
 # main.cpp:245: 		dt = GetFrameTime();
	.loc 10 245 6
	movl	%eax, dt(%rip)	 # _15, dt
.L281:
.LBE63:
 # main.cpp:217: 	while (!WindowShouldClose()) {
	.loc 10 217 27
	call	WindowShouldClose	 #
 # main.cpp:217: 	while (!WindowShouldClose()) {
	.loc 10 217 9
	xorl	$1, %eax	 #, retval.118_41
	testb	%al, %al	 # retval.118_41
	jne	.L289	 #,
 # main.cpp:248: 	CloseWindow();
	.loc 10 248 13
	call	CloseWindow	 #
 # main.cpp:249: }
	.loc 10 249 1
	movl	$0, %eax	 #, _43
	addq	$104, %rsp	 #,
	popq	%rbx	 #
.LCFI412:
	popq	%rsi	 #
.LCFI413:
	popq	%rdi	 #
.LCFI414:
	popq	%rbp	 #
.LCFI415:
	ret	
.LFE4709:
	.seh_endproc
	.section	.text$_ZSt3maxIyERKT_S2_S2_,"x"
	.linkonce discard
	.globl	_ZSt3maxIyERKT_S2_S2_
	.def	_ZSt3maxIyERKT_S2_S2_;	.scl	2;	.type	32;	.endef
	.seh_proc	_ZSt3maxIyERKT_S2_S2_
_ZSt3maxIyERKT_S2_S2_:
.LFB5070:
	.loc 3 254 5
	pushq	%rbp	 #
	.seh_pushreg	%rbp
.LCFI416:
	movq	%rsp, %rbp	 #,
	.seh_setframe	%rbp, 0
.LCFI417:
	.seh_endprologue
	movq	%rcx, 16(%rbp)	 # __a, __a
	movq	%rdx, 24(%rbp)	 # __b, __b
 # c:\users\pluto\scoop\apps\gcc\current\include\c++\11.2.0\bits\stl_algobase.h:259:       if (__a < __b)
	.loc 3 259 15
	movq	16(%rbp), %rax	 # __a, tmp86
	movq	(%rax), %rdx	 # *__a_5(D), _1
	movq	24(%rbp), %rax	 # __b, tmp87
	movq	(%rax), %rax	 # *__b_6(D), _2
 # c:\users\pluto\scoop\apps\gcc\current\include\c++\11.2.0\bits\stl_algobase.h:259:       if (__a < __b)
	.loc 3 259 7
	cmpq	%rax, %rdx	 # _2, _1
	jnb	.L292	 #,
 # c:\users\pluto\scoop\apps\gcc\current\include\c++\11.2.0\bits\stl_algobase.h:260: 	return __b;
	.loc 3 260 9
	movq	24(%rbp), %rax	 # __b, _3
	jmp	.L293	 #
.L292:
 # c:\users\pluto\scoop\apps\gcc\current\include\c++\11.2.0\bits\stl_algobase.h:261:       return __a;
	.loc 3 261 14
	movq	16(%rbp), %rax	 # __a, _3
.L293:
 # c:\users\pluto\scoop\apps\gcc\current\include\c++\11.2.0\bits\stl_algobase.h:262:     }
	.loc 3 262 5
	popq	%rbp	 #
.LCFI418:
	ret	
.LFE5070:
	.seh_endproc
	.section	.text$_ZNSt13_Bvector_baseISaIbEE13_Bvector_implD1Ev,"x"
	.linkonce discard
	.align 2
	.globl	_ZNSt13_Bvector_baseISaIbEE13_Bvector_implD1Ev
	.def	_ZNSt13_Bvector_baseISaIbEE13_Bvector_implD1Ev;	.scl	2;	.type	32;	.endef
	.seh_proc	_ZNSt13_Bvector_baseISaIbEE13_Bvector_implD1Ev
_ZNSt13_Bvector_baseISaIbEE13_Bvector_implD1Ev:
.LFB5084:
	.loc 8 477 14
	pushq	%rbp	 #
	.seh_pushreg	%rbp
.LCFI419:
	movq	%rsp, %rbp	 #,
	.seh_setframe	%rbp, 0
.LCFI420:
	subq	$32, %rsp	 #,
	.seh_stackalloc	32
	.seh_endprologue
	movq	%rcx, 16(%rbp)	 # this, this
.LBB65:
 # c:\users\pluto\scoop\apps\gcc\current\include\c++\11.2.0\bits\stl_bvector.h:477:       struct _Bvector_impl
	.loc 8 477 14
	movq	16(%rbp), %rcx	 # this,
	call	_ZNSaImED2Ev	 #
.LBE65:
	nop	
	addq	$32, %rsp	 #,
	popq	%rbp	 #
.LCFI421:
	ret	
.LFE5084:
	.seh_endproc
	.section	.text$_ZNSt13_Bvector_baseISaIbEEC2Ev,"x"
	.linkonce discard
	.align 2
	.globl	_ZNSt13_Bvector_baseISaIbEEC2Ev
	.def	_ZNSt13_Bvector_baseISaIbEEC2Ev;	.scl	2;	.type	32;	.endef
	.seh_proc	_ZNSt13_Bvector_baseISaIbEEC2Ev
_ZNSt13_Bvector_baseISaIbEEC2Ev:
.LFB5085:
	.loc 8 526 7
	pushq	%rbp	 #
	.seh_pushreg	%rbp
.LCFI422:
	movq	%rsp, %rbp	 #,
	.seh_setframe	%rbp, 0
.LCFI423:
	subq	$32, %rsp	 #,
	.seh_stackalloc	32
	.seh_endprologue
	movq	%rcx, 16(%rbp)	 # this, this
.LBB66:
 # c:\users\pluto\scoop\apps\gcc\current\include\c++\11.2.0\bits\stl_bvector.h:526:       _Bvector_base() = default;
	.loc 8 526 7
	movq	16(%rbp), %rax	 # this, _1
	movq	%rax, %rcx	 # _1,
	call	_ZNSt13_Bvector_baseISaIbEE13_Bvector_implC1Ev	 #
.LBE66:
	nop	
	addq	$32, %rsp	 #,
	popq	%rbp	 #
.LCFI424:
	ret	
.LFE5085:
	.seh_endproc
	.section	.text$_ZNSt6vectorIbSaIbEEC1Ev,"x"
	.linkonce discard
	.align 2
	.globl	_ZNSt6vectorIbSaIbEEC1Ev
	.def	_ZNSt6vectorIbSaIbEEC1Ev;	.scl	2;	.type	32;	.endef
	.seh_proc	_ZNSt6vectorIbSaIbEEC1Ev
_ZNSt6vectorIbSaIbEEC1Ev:
.LFB5088:
	.loc 8 632 7
	pushq	%rbp	 #
	.seh_pushreg	%rbp
.LCFI425:
	movq	%rsp, %rbp	 #,
	.seh_setframe	%rbp, 0
.LCFI426:
	subq	$32, %rsp	 #,
	.seh_stackalloc	32
	.seh_endprologue
	movq	%rcx, 16(%rbp)	 # this, this
.LBB67:
 # c:\users\pluto\scoop\apps\gcc\current\include\c++\11.2.0\bits\stl_bvector.h:632:       vector() = default;
	.loc 8 632 7
	movq	16(%rbp), %rax	 # this, _1
	movq	%rax, %rcx	 # _1,
	call	_ZNSt13_Bvector_baseISaIbEEC2Ev	 #
.LBE67:
	nop	
	addq	$32, %rsp	 #,
	popq	%rbp	 #
.LCFI427:
	ret	
.LFE5088:
	.seh_endproc
	.section	.text$_ZNSt12_Vector_baseIiSaIiEE12_Vector_implD1Ev,"x"
	.linkonce discard
	.align 2
	.globl	_ZNSt12_Vector_baseIiSaIiEE12_Vector_implD1Ev
	.def	_ZNSt12_Vector_baseIiSaIiEE12_Vector_implD1Ev;	.scl	2;	.type	32;	.endef
	.seh_proc	_ZNSt12_Vector_baseIiSaIiEE12_Vector_implD1Ev
_ZNSt12_Vector_baseIiSaIiEE12_Vector_implD1Ev:
.LFB5094:
	.loc 11 128 14
	pushq	%rbp	 #
	.seh_pushreg	%rbp
.LCFI428:
	movq	%rsp, %rbp	 #,
	.seh_setframe	%rbp, 0
.LCFI429:
	subq	$32, %rsp	 #,
	.seh_stackalloc	32
	.seh_endprologue
	movq	%rcx, 16(%rbp)	 # this, this
.LBB68:
 # c:\users\pluto\scoop\apps\gcc\current\include\c++\11.2.0\bits\stl_vector.h:128:       struct _Vector_impl
	.loc 11 128 14
	movq	16(%rbp), %rcx	 # this,
	call	_ZNSaIiED2Ev	 #
.LBE68:
	nop	
	addq	$32, %rsp	 #,
	popq	%rbp	 #
.LCFI430:
	ret	
.LFE5094:
	.seh_endproc
	.section	.text$_ZNSt12_Vector_baseIiSaIiEEC2Ev,"x"
	.linkonce discard
	.align 2
	.globl	_ZNSt12_Vector_baseIiSaIiEEC2Ev
	.def	_ZNSt12_Vector_baseIiSaIiEEC2Ev;	.scl	2;	.type	32;	.endef
	.seh_proc	_ZNSt12_Vector_baseIiSaIiEEC2Ev
_ZNSt12_Vector_baseIiSaIiEEC2Ev:
.LFB5095:
	.loc 11 288 7
	pushq	%rbp	 #
	.seh_pushreg	%rbp
.LCFI431:
	movq	%rsp, %rbp	 #,
	.seh_setframe	%rbp, 0
.LCFI432:
	subq	$32, %rsp	 #,
	.seh_stackalloc	32
	.seh_endprologue
	movq	%rcx, 16(%rbp)	 # this, this
.LBB69:
 # c:\users\pluto\scoop\apps\gcc\current\include\c++\11.2.0\bits\stl_vector.h:288:       _Vector_base() = default;
	.loc 11 288 7
	movq	16(%rbp), %rax	 # this, _1
	movq	%rax, %rcx	 # _1,
	call	_ZNSt12_Vector_baseIiSaIiEE12_Vector_implC1Ev	 #
.LBE69:
	nop	
	addq	$32, %rsp	 #,
	popq	%rbp	 #
.LCFI433:
	ret	
.LFE5095:
	.seh_endproc
	.section	.text$_ZNSt6vectorIiSaIiEEC1Ev,"x"
	.linkonce discard
	.align 2
	.globl	_ZNSt6vectorIiSaIiEEC1Ev
	.def	_ZNSt6vectorIiSaIiEEC1Ev;	.scl	2;	.type	32;	.endef
	.seh_proc	_ZNSt6vectorIiSaIiEEC1Ev
_ZNSt6vectorIiSaIiEEC1Ev:
.LFB5098:
	.loc 11 487 7
	pushq	%rbp	 #
	.seh_pushreg	%rbp
.LCFI434:
	movq	%rsp, %rbp	 #,
	.seh_setframe	%rbp, 0
.LCFI435:
	subq	$32, %rsp	 #,
	.seh_stackalloc	32
	.seh_endprologue
	movq	%rcx, 16(%rbp)	 # this, this
.LBB70:
 # c:\users\pluto\scoop\apps\gcc\current\include\c++\11.2.0\bits\stl_vector.h:487:       vector() = default;
	.loc 11 487 7
	movq	16(%rbp), %rax	 # this, _1
	movq	%rax, %rcx	 # _1,
	call	_ZNSt12_Vector_baseIiSaIiEEC2Ev	 #
.LBE70:
	nop	
	addq	$32, %rsp	 #,
	popq	%rbp	 #
.LCFI436:
	ret	
.LFE5098:
	.seh_endproc
	.section	.text$_ZN7OptimapIhiEC1Ev,"x"
	.linkonce discard
	.align 2
	.globl	_ZN7OptimapIhiEC1Ev
	.def	_ZN7OptimapIhiEC1Ev;	.scl	2;	.type	32;	.endef
	.seh_proc	_ZN7OptimapIhiEC1Ev
_ZN7OptimapIhiEC1Ev:
.LFB5100:
	.loc 9 20 2
	pushq	%rbp	 #
	.seh_pushreg	%rbp
.LCFI437:
	pushq	%rbx	 #
	.seh_pushreg	%rbx
.LCFI438:
	subq	$40, %rsp	 #,
	.seh_stackalloc	40
.LCFI439:
	leaq	32(%rsp), %rbp	 #,
	.seh_setframe	%rbp, 32
.LCFI440:
	.seh_endprologue
	movq	%rcx, 32(%rbp)	 # this, this
.LBB71:
 # optimap.hpp:20: 	Optimap() { init(8); }
	.loc 9 20 12
	movq	32(%rbp), %rax	 # this, _1
	movq	%rax, %rcx	 # _1,
	call	_ZNSt6vectorIbSaIbEEC1Ev	 #
	movq	32(%rbp), %rax	 # this, tmp87
	addq	$40, %rax	 #, _2
	movq	%rax, %rcx	 # _2,
	call	_ZNSt6vectorIiSaIiEEC1Ev	 #
 # optimap.hpp:20: 	Optimap() { init(8); }
	.loc 9 20 18
	movl	$8, %edx	 #,
	movq	32(%rbp), %rcx	 # this,
.LEHB14:
	call	_ZN7OptimapIhiE4initEi	 #
.LEHE14:
.LBE71:
 # optimap.hpp:20: 	Optimap() { init(8); }
	.loc 9 20 23
	jmp	.L303	 #
.L302:
.LBB72:
	movq	%rax, %rbx	 #, tmp90
	movq	32(%rbp), %rax	 # this, tmp88
	addq	$40, %rax	 #, _3
	movq	%rax, %rcx	 # _3,
	call	_ZNSt6vectorIiSaIiEED1Ev	 #
	movq	32(%rbp), %rax	 # this, _4
	movq	%rax, %rcx	 # _4,
	call	_ZNSt6vectorIbSaIbEED1Ev	 #
	movq	%rbx, %rax	 # tmp89, D.129141
	movq	%rax, %rcx	 # D.129141,
.LEHB15:
	call	_Unwind_Resume	 #
	nop	
.LEHE15:
.L303:
.LBE72:
	addq	$40, %rsp	 #,
	popq	%rbx	 #
.LCFI441:
	popq	%rbp	 #
.LCFI442:
	ret	
.LFE5100:
	.seh_handler	__gxx_personality_seh0, @unwind, @except
	.seh_handlerdata
.LLSDA5100:
	.byte	0xff
	.byte	0xff
	.byte	0x1
	.uleb128 .LLSDACSE5100-.LLSDACSB5100
.LLSDACSB5100:
	.uleb128 .LEHB14-.LFB5100
	.uleb128 .LEHE14-.LEHB14
	.uleb128 .L302-.LFB5100
	.uleb128 0
	.uleb128 .LEHB15-.LFB5100
	.uleb128 .LEHE15-.LEHB15
	.uleb128 0
	.uleb128 0
.LLSDACSE5100:
	.section	.text$_ZN7OptimapIhiEC1Ev,"x"
	.linkonce discard
	.seh_endproc
	.section	.text$_ZNSt6vectorIbSaIbEED1Ev,"x"
	.linkonce discard
	.align 2
	.globl	_ZNSt6vectorIbSaIbEED1Ev
	.def	_ZNSt6vectorIbSaIbEED1Ev;	.scl	2;	.type	32;	.endef
	.seh_proc	_ZNSt6vectorIbSaIbEED1Ev
_ZNSt6vectorIbSaIbEED1Ev:
.LFB5103:
	.loc 8 733 7
	pushq	%rbp	 #
	.seh_pushreg	%rbp
.LCFI443:
	movq	%rsp, %rbp	 #,
	.seh_setframe	%rbp, 0
.LCFI444:
	subq	$32, %rsp	 #,
	.seh_stackalloc	32
	.seh_endprologue
	movq	%rcx, 16(%rbp)	 # this, this
.LBB73:
 # c:\users\pluto\scoop\apps\gcc\current\include\c++\11.2.0\bits\stl_bvector.h:733:       ~vector() _GLIBCXX_NOEXCEPT { }
	.loc 8 733 37
	movq	16(%rbp), %rax	 # this, _1
	movq	%rax, %rcx	 # _1,
	call	_ZNSt13_Bvector_baseISaIbEED2Ev	 #
.LBE73:
	nop	
	addq	$32, %rsp	 #,
	popq	%rbp	 #
.LCFI445:
	ret	
.LFE5103:
	.seh_endproc
	.section	.text$_ZNSt6vectorIiSaIiEED1Ev,"x"
	.linkonce discard
	.align 2
	.globl	_ZNSt6vectorIiSaIiEED1Ev
	.def	_ZNSt6vectorIiSaIiEED1Ev;	.scl	2;	.type	32;	.endef
	.seh_proc	_ZNSt6vectorIiSaIiEED1Ev
_ZNSt6vectorIiSaIiEED1Ev:
.LFB5106:
	.loc 11 678 7
	pushq	%rbp	 #
	.seh_pushreg	%rbp
.LCFI446:
	movq	%rsp, %rbp	 #,
	.seh_setframe	%rbp, 0
.LCFI447:
	subq	$32, %rsp	 #,
	.seh_stackalloc	32
	.seh_endprologue
	movq	%rcx, 16(%rbp)	 # this, this
.LBB74:
 # c:\users\pluto\scoop\apps\gcc\current\include\c++\11.2.0\bits\stl_vector.h:681: 		      _M_get_Tp_allocator());
	.loc 11 681 28
	movq	16(%rbp), %rax	 # this, _1
	movq	%rax, %rcx	 # _1,
	call	_ZNSt12_Vector_baseIiSaIiEE19_M_get_Tp_allocatorEv	 #
	movq	%rax, %rcx	 #, _2
 # c:\users\pluto\scoop\apps\gcc\current\include\c++\11.2.0\bits\stl_vector.h:680: 	std::_Destroy(this->_M_impl._M_start, this->_M_impl._M_finish,
	.loc 11 680 15
	movq	16(%rbp), %rax	 # this, tmp87
	movq	8(%rax), %rdx	 # this_6(D)->D.106011._M_impl.D.105361._M_finish, _3
	movq	16(%rbp), %rax	 # this, tmp88
	movq	(%rax), %rax	 # this_6(D)->D.106011._M_impl.D.105361._M_start, _4
	movq	%rcx, %r8	 # _2,
	movq	%rax, %rcx	 # _4,
	call	_ZSt8_DestroyIPiiEvT_S1_RSaIT0_E	 #
 # c:\users\pluto\scoop\apps\gcc\current\include\c++\11.2.0\bits\stl_vector.h:683:       }
	.loc 11 683 7
	movq	16(%rbp), %rax	 # this, _5
	movq	%rax, %rcx	 # _5,
	call	_ZNSt12_Vector_baseIiSaIiEED2Ev	 #
.LBE74:
	nop	
	addq	$32, %rsp	 #,
	popq	%rbp	 #
.LCFI448:
	ret	
.LFE5106:
	.seh_handler	__gxx_personality_seh0, @unwind, @except
	.seh_handlerdata
.LLSDA5106:
	.byte	0xff
	.byte	0xff
	.byte	0x1
	.uleb128 .LLSDACSE5106-.LLSDACSB5106
.LLSDACSB5106:
.LLSDACSE5106:
	.section	.text$_ZNSt6vectorIiSaIiEED1Ev,"x"
	.linkonce discard
	.seh_endproc
	.section	.text$_ZN7OptimapIhiE4initEi,"x"
	.linkonce discard
	.align 2
	.globl	_ZN7OptimapIhiE4initEi
	.def	_ZN7OptimapIhiE4initEi;	.scl	2;	.type	32;	.endef
	.seh_proc	_ZN7OptimapIhiE4initEi
_ZN7OptimapIhiE4initEi:
.LFB5107:
	.loc 9 13 7
	pushq	%rbp	 #
	.seh_pushreg	%rbp
.LCFI449:
	movq	%rsp, %rbp	 #,
	.seh_setframe	%rbp, 0
.LCFI450:
	subq	$32, %rsp	 #,
	.seh_stackalloc	32
	.seh_endprologue
	movq	%rcx, 16(%rbp)	 # this, this
	movl	%edx, 24(%rbp)	 # size, size
 # optimap.hpp:14: 		mapped.reserve(size);
	.loc 9 14 17
	movq	16(%rbp), %rax	 # this, _1
	movl	24(%rbp), %edx	 # size, tmp90
	movslq	%edx, %rdx	 # tmp90, _2
	movq	%rax, %rcx	 # _1,
	call	_ZNSt6vectorIbSaIbEE7reserveEy	 #
 # optimap.hpp:15: 		mapped.resize(size, false);
	.loc 9 15 16
	movq	16(%rbp), %rax	 # this, _3
	movl	24(%rbp), %edx	 # size, tmp91
	movslq	%edx, %rdx	 # tmp91, _4
	movl	$0, %r8d	 #,
	movq	%rax, %rcx	 # _3,
	call	_ZNSt6vectorIbSaIbEE6resizeEyb	 #
 # optimap.hpp:16: 		val.reserve(size);
	.loc 9 16 14
	movq	16(%rbp), %rax	 # this, tmp92
	leaq	40(%rax), %rcx	 #, _5
	movl	24(%rbp), %eax	 # size, tmp93
	cltq
	movq	%rax, %rdx	 # _6,
	call	_ZNSt6vectorIiSaIiEE7reserveEy	 #
 # optimap.hpp:17: 		val.resize(size);
	.loc 9 17 13
	movq	16(%rbp), %rax	 # this, tmp94
	leaq	40(%rax), %rcx	 #, _7
	movl	24(%rbp), %eax	 # size, tmp95
	cltq
	movq	%rax, %rdx	 # _8,
	call	_ZNSt6vectorIiSaIiEE6resizeEy	 #
 # optimap.hpp:18: 	}
	.loc 9 18 2
	nop	
	addq	$32, %rsp	 #,
	popq	%rbp	 #
.LCFI451:
	ret	
.LFE5107:
	.seh_endproc
	.section	.text$_ZN7OptimapIhiEixEh,"x"
	.linkonce discard
	.align 2
	.globl	_ZN7OptimapIhiEixEh
	.def	_ZN7OptimapIhiEixEh;	.scl	2;	.type	32;	.endef
	.seh_proc	_ZN7OptimapIhiEixEh
_ZN7OptimapIhiEixEh:
.LFB5108:
	.loc 9 30 18
	pushq	%rbp	 #
	.seh_pushreg	%rbp
.LCFI452:
	movq	%rsp, %rbp	 #,
	.seh_setframe	%rbp, 0
.LCFI453:
	subq	$48, %rsp	 #,
	.seh_stackalloc	48
	.seh_endprologue
	movq	%rcx, 16(%rbp)	 # this, this
	movl	%edx, %eax	 # key, tmp88
	movb	%al, 24(%rbp)	 # tmp89, key
 # optimap.hpp:31: 		mapped[key] = true;
	.loc 9 31 9
	movq	16(%rbp), %rdx	 # this, _1
	movzbl	24(%rbp), %ecx	 # key, _2
	leaq	-16(%rbp), %rax	 #, tmp90
	movq	%rcx, %r8	 # _2,
	movq	%rax, %rcx	 # tmp90,
	call	_ZNSt6vectorIbSaIbEEixEy	 #
 # optimap.hpp:31: 		mapped[key] = true;
	.loc 9 31 15
	leaq	-16(%rbp), %rax	 #, tmp91
	movl	$1, %edx	 #,
	movq	%rax, %rcx	 # tmp91,
	call	_ZNSt14_Bit_referenceaSEb	 #
 # optimap.hpp:32: 		return val[key];
	.loc 9 32 13
	movq	16(%rbp), %rax	 # this, tmp92
	leaq	40(%rax), %rcx	 #, _3
	movzbl	24(%rbp), %eax	 # key, _4
	movq	%rax, %rdx	 # _4,
	call	_ZNSt6vectorIiSaIiEEixEy	 #
 # optimap.hpp:33: 	}
	.loc 9 33 2
	addq	$48, %rsp	 #,
	popq	%rbp	 #
.LCFI454:
	ret	
.LFE5108:
	.seh_endproc
	.section	.text$_ZNK7OptimapIhiE8containsEh,"x"
	.linkonce discard
	.align 2
	.globl	_ZNK7OptimapIhiE8containsEh
	.def	_ZNK7OptimapIhiE8containsEh;	.scl	2;	.type	32;	.endef
	.seh_proc	_ZNK7OptimapIhiE8containsEh
_ZNK7OptimapIhiE8containsEh:
.LFB5109:
	.loc 9 26 14
	pushq	%rbp	 #
	.seh_pushreg	%rbp
.LCFI455:
	movq	%rsp, %rbp	 #,
	.seh_setframe	%rbp, 0
.LCFI456:
	subq	$32, %rsp	 #,
	.seh_stackalloc	32
	.seh_endprologue
	movq	%rcx, 16(%rbp)	 # this, this
	movl	%edx, %eax	 # key, tmp86
	movb	%al, 24(%rbp)	 # tmp87, key
 # optimap.hpp:27: 		return mapped[key];
	.loc 9 27 16
	movq	16(%rbp), %rax	 # this, _1
	movzbl	24(%rbp), %edx	 # key, _2
	movq	%rax, %rcx	 # _1,
	call	_ZNKSt6vectorIbSaIbEEixEy	 #
 # optimap.hpp:28: 	}
	.loc 9 28 2
	addq	$32, %rsp	 #,
	popq	%rbp	 #
.LCFI457:
	ret	
.LFE5109:
	.seh_endproc
	.section	.text$_ZNSt12_Vector_baseIN3DDT4NodeESaIS1_EE12_Vector_implC1Ev,"x"
	.linkonce discard
	.align 2
	.globl	_ZNSt12_Vector_baseIN3DDT4NodeESaIS1_EE12_Vector_implC1Ev
	.def	_ZNSt12_Vector_baseIN3DDT4NodeESaIS1_EE12_Vector_implC1Ev;	.scl	2;	.type	32;	.endef
	.seh_proc	_ZNSt12_Vector_baseIN3DDT4NodeESaIS1_EE12_Vector_implC1Ev
_ZNSt12_Vector_baseIN3DDT4NodeESaIS1_EE12_Vector_implC1Ev:
.LFB5112:
	.loc 11 131 2
	pushq	%rbp	 #
	.seh_pushreg	%rbp
.LCFI458:
	movq	%rsp, %rbp	 #,
	.seh_setframe	%rbp, 0
.LCFI459:
	subq	$32, %rsp	 #,
	.seh_stackalloc	32
	.seh_endprologue
	movq	%rcx, 16(%rbp)	 # this, this
.LBB75:
 # c:\users\pluto\scoop\apps\gcc\current\include\c++\11.2.0\bits\stl_vector.h:133: 	: _Tp_alloc_type()
	.loc 11 133 19
	movq	16(%rbp), %rcx	 # this,
	call	_ZNSaIN3DDT4NodeEEC2Ev	 #
	movq	16(%rbp), %rax	 # this, _1
	movq	%rax, %rcx	 # _1,
	call	_ZNSt12_Vector_baseIN3DDT4NodeESaIS1_EE17_Vector_impl_dataC2Ev	 #
.LBE75:
 # c:\users\pluto\scoop\apps\gcc\current\include\c++\11.2.0\bits\stl_vector.h:134: 	{ }
	.loc 11 134 4
	nop	
	addq	$32, %rsp	 #,
	popq	%rbp	 #
.LCFI460:
	ret	
.LFE5112:
	.seh_endproc
	.section	.text$_ZNSaIN3DDT4NodeEED2Ev,"x"
	.linkonce discard
	.align 2
	.globl	_ZNSaIN3DDT4NodeEED2Ev
	.def	_ZNSaIN3DDT4NodeEED2Ev;	.scl	2;	.type	32;	.endef
	.seh_proc	_ZNSaIN3DDT4NodeEED2Ev
_ZNSaIN3DDT4NodeEED2Ev:
.LFB5114:
	.file 12 "c:/users/pluto/scoop/apps/gcc/current/include/c++/11.2.0/bits/allocator.h"
	.loc 12 186 7
	pushq	%rbp	 #
	.seh_pushreg	%rbp
.LCFI461:
	movq	%rsp, %rbp	 #,
	.seh_setframe	%rbp, 0
.LCFI462:
	.seh_endprologue
	movq	%rcx, 16(%rbp)	 # this, this
 # c:\users\pluto\scoop\apps\gcc\current\include\c++\11.2.0\bits\allocator.h:186:       ~allocator() _GLIBCXX_NOTHROW { }
	.loc 12 186 39
	nop	
	popq	%rbp	 #
.LCFI463:
	ret	
.LFE5114:
	.seh_endproc
	.section	.text$_ZNSt12_Vector_baseIN3DDT4NodeESaIS1_EED2Ev,"x"
	.linkonce discard
	.align 2
	.globl	_ZNSt12_Vector_baseIN3DDT4NodeESaIS1_EED2Ev
	.def	_ZNSt12_Vector_baseIN3DDT4NodeESaIS1_EED2Ev;	.scl	2;	.type	32;	.endef
	.seh_proc	_ZNSt12_Vector_baseIN3DDT4NodeESaIS1_EED2Ev
_ZNSt12_Vector_baseIN3DDT4NodeESaIS1_EED2Ev:
.LFB5117:
	.loc 11 333 7
	pushq	%rbp	 #
	.seh_pushreg	%rbp
.LCFI464:
	movq	%rsp, %rbp	 #,
	.seh_setframe	%rbp, 0
.LCFI465:
	subq	$32, %rsp	 #,
	.seh_stackalloc	32
	.seh_endprologue
	movq	%rcx, 16(%rbp)	 # this, this
.LBB76:
 # c:\users\pluto\scoop\apps\gcc\current\include\c++\11.2.0\bits\stl_vector.h:336: 		      _M_impl._M_end_of_storage - _M_impl._M_start);
	.loc 11 336 17
	movq	16(%rbp), %rax	 # this, tmp89
	movq	16(%rax), %rdx	 # this_9(D)->_M_impl.D.104320._M_end_of_storage, _1
 # c:\users\pluto\scoop\apps\gcc\current\include\c++\11.2.0\bits\stl_vector.h:336: 		      _M_impl._M_end_of_storage - _M_impl._M_start);
	.loc 11 336 45
	movq	16(%rbp), %rax	 # this, tmp90
	movq	(%rax), %rcx	 # this_9(D)->_M_impl.D.104320._M_start, _2
 # c:\users\pluto\scoop\apps\gcc\current\include\c++\11.2.0\bits\stl_vector.h:336: 		      _M_impl._M_end_of_storage - _M_impl._M_start);
	.loc 11 336 35
	movq	%rdx, %rax	 # _1, _1
	subq	%rcx, %rax	 # _2, _1
	sarq	$3, %rax	 #, _3
	movq	%rax, %rdx	 # _3, tmp91
	movabsq	$-8198552921648689607, %rax	 #, tmp93
	imulq	%rdx, %rax	 # tmp91, tmp92
 # c:\users\pluto\scoop\apps\gcc\current\include\c++\11.2.0\bits\stl_vector.h:335: 	_M_deallocate(_M_impl._M_start,
	.loc 11 335 15
	movq	%rax, %rdx	 # _4, _5
	movq	16(%rbp), %rax	 # this, tmp94
	movq	(%rax), %rax	 # this_9(D)->_M_impl.D.104320._M_start, _6
	movq	%rdx, %r8	 # _5,
	movq	%rax, %rdx	 # _6,
	movq	16(%rbp), %rcx	 # this,
	call	_ZNSt12_Vector_baseIN3DDT4NodeESaIS1_EE13_M_deallocateEPS1_y	 #
 # c:\users\pluto\scoop\apps\gcc\current\include\c++\11.2.0\bits\stl_vector.h:337:       }
	.loc 11 337 7
	movq	16(%rbp), %rax	 # this, _7
	movq	%rax, %rcx	 # _7,
	call	_ZNSt12_Vector_baseIN3DDT4NodeESaIS1_EE12_Vector_implD1Ev	 #
.LBE76:
	nop	
	addq	$32, %rsp	 #,
	popq	%rbp	 #
.LCFI466:
	ret	
.LFE5117:
	.seh_handler	__gxx_personality_seh0, @unwind, @except
	.seh_handlerdata
.LLSDA5117:
	.byte	0xff
	.byte	0xff
	.byte	0x1
	.uleb128 .LLSDACSE5117-.LLSDACSB5117
.LLSDACSB5117:
.LLSDACSE5117:
	.section	.text$_ZNSt12_Vector_baseIN3DDT4NodeESaIS1_EED2Ev,"x"
	.linkonce discard
	.seh_endproc
	.section	.text$_ZNSt6vectorIN3DDT4NodeESaIS1_EED1Ev,"x"
	.linkonce discard
	.align 2
	.globl	_ZNSt6vectorIN3DDT4NodeESaIS1_EED1Ev
	.def	_ZNSt6vectorIN3DDT4NodeESaIS1_EED1Ev;	.scl	2;	.type	32;	.endef
	.seh_proc	_ZNSt6vectorIN3DDT4NodeESaIS1_EED1Ev
_ZNSt6vectorIN3DDT4NodeESaIS1_EED1Ev:
.LFB5121:
	.loc 11 678 7
	pushq	%rbp	 #
	.seh_pushreg	%rbp
.LCFI467:
	movq	%rsp, %rbp	 #,
	.seh_setframe	%rbp, 0
.LCFI468:
	subq	$32, %rsp	 #,
	.seh_stackalloc	32
	.seh_endprologue
	movq	%rcx, 16(%rbp)	 # this, this
.LBB77:
 # c:\users\pluto\scoop\apps\gcc\current\include\c++\11.2.0\bits\stl_vector.h:681: 		      _M_get_Tp_allocator());
	.loc 11 681 28
	movq	16(%rbp), %rax	 # this, _1
	movq	%rax, %rcx	 # _1,
	call	_ZNSt12_Vector_baseIN3DDT4NodeESaIS1_EE19_M_get_Tp_allocatorEv	 #
	movq	%rax, %rcx	 #, _2
 # c:\users\pluto\scoop\apps\gcc\current\include\c++\11.2.0\bits\stl_vector.h:680: 	std::_Destroy(this->_M_impl._M_start, this->_M_impl._M_finish,
	.loc 11 680 15
	movq	16(%rbp), %rax	 # this, tmp87
	movq	8(%rax), %rdx	 # this_6(D)->D.105007._M_impl.D.104320._M_finish, _3
	movq	16(%rbp), %rax	 # this, tmp88
	movq	(%rax), %rax	 # this_6(D)->D.105007._M_impl.D.104320._M_start, _4
	movq	%rcx, %r8	 # _2,
	movq	%rax, %rcx	 # _4,
	call	_ZSt8_DestroyIPN3DDT4NodeES1_EvT_S3_RSaIT0_E	 #
 # c:\users\pluto\scoop\apps\gcc\current\include\c++\11.2.0\bits\stl_vector.h:683:       }
	.loc 11 683 7
	movq	16(%rbp), %rax	 # this, _5
	movq	%rax, %rcx	 # _5,
	call	_ZNSt12_Vector_baseIN3DDT4NodeESaIS1_EED2Ev	 #
.LBE77:
	nop	
	addq	$32, %rsp	 #,
	popq	%rbp	 #
.LCFI469:
	ret	
.LFE5121:
	.seh_handler	__gxx_personality_seh0, @unwind, @except
	.seh_handlerdata
.LLSDA5121:
	.byte	0xff
	.byte	0xff
	.byte	0x1
	.uleb128 .LLSDACSE5121-.LLSDACSB5121
.LLSDACSB5121:
.LLSDACSE5121:
	.section	.text$_ZNSt6vectorIN3DDT4NodeESaIS1_EED1Ev,"x"
	.linkonce discard
	.seh_endproc
	.section	.text$_ZNSt6vectorIN3DDT4NodeESaIS1_EE9push_backEOS1_,"x"
	.linkonce discard
	.align 2
	.globl	_ZNSt6vectorIN3DDT4NodeESaIS1_EE9push_backEOS1_
	.def	_ZNSt6vectorIN3DDT4NodeESaIS1_EE9push_backEOS1_;	.scl	2;	.type	32;	.endef
	.seh_proc	_ZNSt6vectorIN3DDT4NodeESaIS1_EE9push_backEOS1_
_ZNSt6vectorIN3DDT4NodeESaIS1_EE9push_backEOS1_:
.LFB5122:
	.loc 11 1203 7
	pushq	%rbp	 #
	.seh_pushreg	%rbp
.LCFI470:
	movq	%rsp, %rbp	 #,
	.seh_setframe	%rbp, 0
.LCFI471:
	subq	$32, %rsp	 #,
	.seh_stackalloc	32
	.seh_endprologue
	movq	%rcx, 16(%rbp)	 # this, this
	movq	%rdx, 24(%rbp)	 # __x, __x
 # c:\users\pluto\scoop\apps\gcc\current\include\c++\11.2.0\bits\stl_vector.h:1204:       { emplace_back(std::move(__x)); }
	.loc 11 1204 31
	movq	24(%rbp), %rax	 # __x, tmp83
	movq	%rax, %rcx	 # tmp83,
	call	_ZSt4moveIRN3DDT4NodeEEONSt16remove_referenceIT_E4typeEOS4_	 #
 # c:\users\pluto\scoop\apps\gcc\current\include\c++\11.2.0\bits\stl_vector.h:1204:       { emplace_back(std::move(__x)); }
	.loc 11 1204 21
	movq	%rax, %rdx	 # _1,
	movq	16(%rbp), %rcx	 # this,
	call	_ZNSt6vectorIN3DDT4NodeESaIS1_EE12emplace_backIJS1_EEERS1_DpOT_	 #
 # c:\users\pluto\scoop\apps\gcc\current\include\c++\11.2.0\bits\stl_vector.h:1204:       { emplace_back(std::move(__x)); }
	.loc 11 1204 39
	nop	
	addq	$32, %rsp	 #,
	popq	%rbp	 #
.LCFI472:
	ret	
.LFE5122:
	.seh_endproc
	.section	.text$_ZN9__gnu_cxx14__alloc_traitsISaIN3DDT4NodeEES2_E27_S_propagate_on_copy_assignEv,"x"
	.linkonce discard
	.globl	_ZN9__gnu_cxx14__alloc_traitsISaIN3DDT4NodeEES2_E27_S_propagate_on_copy_assignEv
	.def	_ZN9__gnu_cxx14__alloc_traitsISaIN3DDT4NodeEES2_E27_S_propagate_on_copy_assignEv;	.scl	2;	.type	32;	.endef
	.seh_proc	_ZN9__gnu_cxx14__alloc_traitsISaIN3DDT4NodeEES2_E27_S_propagate_on_copy_assignEv
_ZN9__gnu_cxx14__alloc_traitsISaIN3DDT4NodeEES2_E27_S_propagate_on_copy_assignEv:
.LFB5124:
	.file 13 "c:/users/pluto/scoop/apps/gcc/current/include/c++/11.2.0/ext/alloc_traits.h"
	.loc 13 103 27
	pushq	%rbp	 #
	.seh_pushreg	%rbp
.LCFI473:
	movq	%rsp, %rbp	 #,
	.seh_setframe	%rbp, 0
.LCFI474:
	.seh_endprologue
 # c:\users\pluto\scoop\apps\gcc\current\include\c++\11.2.0\ext\alloc_traits.h:104:     { return _Base_type::propagate_on_container_copy_assignment::value; }
	.loc 13 104 66
	movl	$0, %eax	 #, _1
 # c:\users\pluto\scoop\apps\gcc\current\include\c++\11.2.0\ext\alloc_traits.h:104:     { return _Base_type::propagate_on_container_copy_assignment::value; }
	.loc 13 104 73
	popq	%rbp	 #
.LCFI475:
	ret	
.LFE5124:
	.seh_endproc
	.section	.text$_ZN9__gnu_cxx14__alloc_traitsISaIN3DDT4NodeEES2_E15_S_always_equalEv,"x"
	.linkonce discard
	.globl	_ZN9__gnu_cxx14__alloc_traitsISaIN3DDT4NodeEES2_E15_S_always_equalEv
	.def	_ZN9__gnu_cxx14__alloc_traitsISaIN3DDT4NodeEES2_E15_S_always_equalEv;	.scl	2;	.type	32;	.endef
	.seh_proc	_ZN9__gnu_cxx14__alloc_traitsISaIN3DDT4NodeEES2_E15_S_always_equalEv
_ZN9__gnu_cxx14__alloc_traitsISaIN3DDT4NodeEES2_E15_S_always_equalEv:
.LFB5125:
	.loc 13 112 27
	pushq	%rbp	 #
	.seh_pushreg	%rbp
.LCFI476:
	movq	%rsp, %rbp	 #,
	.seh_setframe	%rbp, 0
.LCFI477:
	.seh_endprologue
 # c:\users\pluto\scoop\apps\gcc\current\include\c++\11.2.0\ext\alloc_traits.h:113:     { return _Base_type::is_always_equal::value; }
	.loc 13 113 43
	movl	$1, %eax	 #, _1
 # c:\users\pluto\scoop\apps\gcc\current\include\c++\11.2.0\ext\alloc_traits.h:113:     { return _Base_type::is_always_equal::value; }
	.loc 13 113 50
	popq	%rbp	 #
.LCFI478:
	ret	
.LFE5125:
	.seh_endproc
	.section	.text$_ZSteqRKSaIN3DDT4NodeEES3_,"x"
	.linkonce discard
	.globl	_ZSteqRKSaIN3DDT4NodeEES3_
	.def	_ZSteqRKSaIN3DDT4NodeEES3_;	.scl	2;	.type	32;	.endef
	.seh_proc	_ZSteqRKSaIN3DDT4NodeEES3_
_ZSteqRKSaIN3DDT4NodeEES3_:
.LFB5126:
	.loc 12 216 7
	pushq	%rbp	 #
	.seh_pushreg	%rbp
.LCFI479:
	movq	%rsp, %rbp	 #,
	.seh_setframe	%rbp, 0
.LCFI480:
	.seh_endprologue
	movq	%rcx, 16(%rbp)	 # D.112986, D.112986
	movq	%rdx, 24(%rbp)	 # D.112987, D.112987
 # c:\users\pluto\scoop\apps\gcc\current\include\c++\11.2.0\bits\allocator.h:217:       { return true; }
	.loc 12 217 16
	movl	$1, %eax	 #, _1
 # c:\users\pluto\scoop\apps\gcc\current\include\c++\11.2.0\bits\allocator.h:217:       { return true; }
	.loc 12 217 22
	popq	%rbp	 #
.LCFI481:
	ret	
.LFE5126:
	.seh_endproc
	.section	.text$_ZSt4copyIPN3DDT4NodeES2_ET0_T_S4_S3_,"x"
	.linkonce discard
	.globl	_ZSt4copyIPN3DDT4NodeES2_ET0_T_S4_S3_
